
DE2_115_SD_CARD.elf:     file format elf32-littlenios2
DE2_115_SD_CARD.elf
architecture: nios2:r1, flags 0x00000112:
EXEC_P, HAS_SYMS, D_PAGED
start address 0x020401bc

Program Header:
    LOAD off    0x00001000 vaddr 0x02040000 paddr 0x02040000 align 2**12
         filesz 0x00000020 memsz 0x00000020 flags r-x
    LOAD off    0x00001020 vaddr 0x02040020 paddr 0x02040020 align 2**12
         filesz 0x00022840 memsz 0x00022840 flags r-x
    LOAD off    0x00023860 vaddr 0x02062860 paddr 0x02064648 align 2**12
         filesz 0x00001de8 memsz 0x00001de8 flags rw-
    LOAD off    0x00026430 vaddr 0x02066430 paddr 0x02066430 align 2**12
         filesz 0x00000000 memsz 0x00000298 flags rw-

Sections:
Idx Name          Size      VMA       LMA       File off  Algn
  0 .entry        00000020  02040000  02040000  00001000  2**5
                  CONTENTS, ALLOC, LOAD, READONLY, CODE
  1 .exceptions   0000019c  02040020  02040020  00001020  2**2
                  CONTENTS, ALLOC, LOAD, READONLY, CODE
  2 .text         00021b04  020401bc  020401bc  000011bc  2**2
                  CONTENTS, ALLOC, LOAD, READONLY, CODE
  3 .rodata       00000ba0  02061cc0  02061cc0  00022cc0  2**2
                  CONTENTS, ALLOC, LOAD, READONLY, DATA
  4 .rwdata       00001de8  02062860  02064648  00023860  2**2
                  CONTENTS, ALLOC, LOAD, DATA, SMALL_DATA
  5 .bss          00000298  02066430  02066430  00026430  2**2
                  ALLOC, SMALL_DATA
  6 .cfi_flash    00000000  01800000  01800000  00025648  2**0
                  CONTENTS
  7 .onchip_memory2 00000000  020666c8  020666c8  00025648  2**0
                  CONTENTS
  8 .comment      00000023  00000000  00000000  00025648  2**0
                  CONTENTS, READONLY
  9 .debug_aranges 000014c0  00000000  00000000  00025670  2**3
                  CONTENTS, READONLY, DEBUGGING
 10 .debug_info   0003fa95  00000000  00000000  00026b30  2**0
                  CONTENTS, READONLY, DEBUGGING
 11 .debug_abbrev 0000f6e3  00000000  00000000  000665c5  2**0
                  CONTENTS, READONLY, DEBUGGING
 12 .debug_line   00013c11  00000000  00000000  00075ca8  2**0
                  CONTENTS, READONLY, DEBUGGING
 13 .debug_frame  00004208  00000000  00000000  000898bc  2**2
                  CONTENTS, READONLY, DEBUGGING
 14 .debug_str    00005b8c  00000000  00000000  0008dac4  2**0
                  CONTENTS, READONLY, DEBUGGING
 15 .debug_loc    00024d40  00000000  00000000  00093650  2**0
                  CONTENTS, READONLY, DEBUGGING
 16 .debug_alt_sim_info 00000060  00000000  00000000  000b8390  2**2
                  CONTENTS, READONLY, DEBUGGING
 17 .debug_ranges 00001a90  00000000  00000000  000b83f0  2**3
                  CONTENTS, READONLY, DEBUGGING
 18 .thread_model 00000003  00000000  00000000  000bf135  2**0
                  CONTENTS, READONLY
 19 .cpu          00000003  00000000  00000000  000bf138  2**0
                  CONTENTS, READONLY
 20 .qsys         00000001  00000000  00000000  000bf13b  2**0
                  CONTENTS, READONLY
 21 .simulation_enabled 00000001  00000000  00000000  000bf13c  2**0
                  CONTENTS, READONLY
 22 .stderr_dev   00000009  00000000  00000000  000bf13d  2**0
                  CONTENTS, READONLY
 23 .stdin_dev    00000009  00000000  00000000  000bf146  2**0
                  CONTENTS, READONLY
 24 .stdout_dev   00000009  00000000  00000000  000bf14f  2**0
                  CONTENTS, READONLY
 25 .sopc_system_name 00000014  00000000  00000000  000bf158  2**0
                  CONTENTS, READONLY
 26 .quartus_project_dir 00000032  00000000  00000000  000bf16c  2**0
                  CONTENTS, READONLY
 27 .jdi          0000486a  00000000  00000000  000bf19e  2**0
                  CONTENTS, READONLY
 28 .sopcinfo     000df8ab  00000000  00000000  000c3a08  2**0
                  CONTENTS, READONLY
SYMBOL TABLE:
02040000 l    d  .entry	00000000 .entry
02040020 l    d  .exceptions	00000000 .exceptions
020401bc l    d  .text	00000000 .text
02061cc0 l    d  .rodata	00000000 .rodata
02062860 l    d  .rwdata	00000000 .rwdata
02066430 l    d  .bss	00000000 .bss
01800000 l    d  .cfi_flash	00000000 .cfi_flash
020666c8 l    d  .onchip_memory2	00000000 .onchip_memory2
00000000 l    d  .comment	00000000 .comment
00000000 l    d  .debug_aranges	00000000 .debug_aranges
00000000 l    d  .debug_info	00000000 .debug_info
00000000 l    d  .debug_abbrev	00000000 .debug_abbrev
00000000 l    d  .debug_line	00000000 .debug_line
00000000 l    d  .debug_frame	00000000 .debug_frame
00000000 l    d  .debug_str	00000000 .debug_str
00000000 l    d  .debug_loc	00000000 .debug_loc
00000000 l    d  .debug_alt_sim_info	00000000 .debug_alt_sim_info
00000000 l    d  .debug_ranges	00000000 .debug_ranges
00000000 l    df *ABS*	00000000 ../DE2_115_SD_CARD_bsp//obj/HAL/src/crt0.o
02040204 l       .text	00000000 alt_after_alt_main
00000000 l    df *ABS*	00000000 alt_exception_entry.o
02040094 l       .exceptions	00000000 alt_exception_unknown
00000000 l    df *ABS*	00000000 alt_irq_handler.c
00000000 l    df *ABS*	00000000 main.c
02066430 l     O .bss	00000004 fp
00000000 l    df *ABS*	00000000 FatFileSystem.c
00000000 l    df *ABS*	00000000 FatInternal.c
00000000 l    df *ABS*	00000000 debug.c
00000000 l    df *ABS*	00000000 crc16.c
02061f00 l     O .rodata	00000200 crc16tab
00000000 l    df *ABS*	00000000 crc7.c
02062100 l     O .rodata	00000100 crc7_syndrome_table
00000000 l    df *ABS*	00000000 sd_hal.c
00000000 l    df *ABS*	00000000 sd_lib.c
02066468 l     O .bss	00000038 gSdInfo
00000000 l    df *ABS*	00000000 sd_protocol.c
00000000 l    df *ABS*	00000000 lib2-divmod.c
02045384 l     F .text	0000006c udivmodsi4
00000000 l    df *ABS*	00000000 divsf3.c
00000000 l    df *ABS*	00000000 mulsf3.c
00000000 l    df *ABS*	00000000 floatunsisf.c
00000000 l    df *ABS*	00000000 divdf3.c
00000000 l    df *ABS*	00000000 extendsfdf2.c
00000000 l    df *ABS*	00000000 truncdfsf2.c
00000000 l    df *ABS*	00000000 libgcc2.c
00000000 l    df *ABS*	00000000 libgcc2.c
00000000 l    df *ABS*	00000000 fclose.c
00000000 l    df *ABS*	00000000 fflush.c
00000000 l    df *ABS*	00000000 findfp.c
02046d78 l     F .text	00000008 __fp_lock
02046d80 l     F .text	00000008 __fp_unlock
02046d94 l     F .text	000001a0 __sinit.part.1
00000000 l    df *ABS*	00000000 fopen.c
00000000 l    df *ABS*	00000000 mallocr.c
00000000 l    df *ABS*	00000000 fseek.c
00000000 l    df *ABS*	00000000 fstatr.c
00000000 l    df *ABS*	00000000 fwalk.c
00000000 l    df *ABS*	00000000 fwrite.c
00000000 l    df *ABS*	00000000 impure.c
02062860 l     O .rwdata	00000424 impure_data
00000000 l    df *ABS*	00000000 int_errno.c
00000000 l    df *ABS*	00000000 makebuf.c
00000000 l    df *ABS*	00000000 malloc.c
00000000 l    df *ABS*	00000000 mallocr.c
00000000 l    df *ABS*	00000000 memcpy.c
00000000 l    df *ABS*	00000000 memset.c
00000000 l    df *ABS*	00000000 openr.c
00000000 l    df *ABS*	00000000 printf.c
00000000 l    df *ABS*	00000000 putchar.c
00000000 l    df *ABS*	00000000 puts.c
00000000 l    df *ABS*	00000000 refill.c
02048b18 l     F .text	0000001c lflush
00000000 l    df *ABS*	00000000 sbrkr.c
00000000 l    df *ABS*	00000000 scanf.c
00000000 l    df *ABS*	00000000 sprintf.c
00000000 l    df *ABS*	00000000 stdio.c
00000000 l    df *ABS*	00000000 strcasecmp.c
00000000 l    df *ABS*	00000000 strlen.c
00000000 l    df *ABS*	00000000 vfprintf.c
0206234a l     O .rodata	00000010 zeroes.4166
0206235a l     O .rodata	00000010 blanks.4165
00000000 l    df *ABS*	00000000 vfprintf.c
0206236a l     O .rodata	00000010 zeroes.4181
0206237a l     O .rodata	00000010 blanks.4180
00000000 l    df *ABS*	00000000 vfscanf.c
02062392 l     O .rodata	00000022 basefix.4098
00000000 l    df *ABS*	00000000 vsnprintf.c
00000000 l    df *ABS*	00000000 writer.c
00000000 l    df *ABS*	00000000 wsetup.c
00000000 l    df *ABS*	00000000 closer.c
00000000 l    df *ABS*	00000000 ctype_.c
020624b5 l     O .rodata	00000180 _ctype_b
00000000 l    df *ABS*	00000000 dtoa.c
0204eba0 l     F .text	00000200 quorem
00000000 l    df *ABS*	00000000 flags.c
00000000 l    df *ABS*	00000000 fread.c
00000000 l    df *ABS*	00000000 fvwrite.c
00000000 l    df *ABS*	00000000 isattyr.c
00000000 l    df *ABS*	00000000 iswspace.c
00000000 l    df *ABS*	00000000 locale.c
020630ac l     O .rwdata	00000020 lc_ctype_charset
0206308c l     O .rwdata	00000020 lc_message_charset
020630cc l     O .rwdata	00000038 lconv
00000000 l    df *ABS*	00000000 lseekr.c
00000000 l    df *ABS*	00000000 mbrtowc.c
00000000 l    df *ABS*	00000000 mbtowc_r.c
00000000 l    df *ABS*	00000000 memchr.c
00000000 l    df *ABS*	00000000 memmove.c
00000000 l    df *ABS*	00000000 mprec.c
02062654 l     O .rodata	0000000c p05.2678
00000000 l    df *ABS*	00000000 putc.c
00000000 l    df *ABS*	00000000 readr.c
00000000 l    df *ABS*	00000000 mallocr.c
00000000 l    df *ABS*	00000000 s_fpclassify.c
00000000 l    df *ABS*	00000000 sccl.c
00000000 l    df *ABS*	00000000 sf_nan.c
00000000 l    df *ABS*	00000000 strcmp.c
00000000 l    df *ABS*	00000000 strtod.c
02063118 l     O .rwdata	00000014 fpi.2638
02062788 l     O .rodata	00000028 tinytens
02063104 l     O .rwdata	00000014 fpinan.2674
00000000 l    df *ABS*	00000000 strtol.c
00000000 l    df *ABS*	00000000 strtoll_r.c
00000000 l    df *ABS*	00000000 strtoul.c
00000000 l    df *ABS*	00000000 strtoull_r.c
00000000 l    df *ABS*	00000000 vfprintf.c
020627b0 l     O .rodata	00000010 zeroes.4110
020627c0 l     O .rodata	00000010 blanks.4109
00000000 l    df *ABS*	00000000 ungetc.c
00000000 l    df *ABS*	00000000 vfprintf.c
02056234 l     F .text	000000fc __sprint_r.part.0
020627e0 l     O .rodata	00000010 blanks.4125
020627d0 l     O .rodata	00000010 zeroes.4126
00000000 l    df *ABS*	00000000 wbuf.c
00000000 l    df *ABS*	00000000 mallocr.c
00000000 l    df *ABS*	00000000 fputwc.c
00000000 l    df *ABS*	00000000 gdtoa-gethex.c
02057ad8 l     F .text	00000100 rshift
00000000 l    df *ABS*	00000000 gdtoa-hexnan.c
00000000 l    df *ABS*	00000000 strncmp.c
00000000 l    df *ABS*	00000000 wcrtomb.c
00000000 l    df *ABS*	00000000 wctomb_r.c
00000000 l    df *ABS*	00000000 libgcc2.c
00000000 l    df *ABS*	00000000 libgcc2.c
00000000 l    df *ABS*	00000000 libgcc2.c
00000000 l    df *ABS*	00000000 libgcc2.c
00000000 l    df *ABS*	00000000 eqsf2.c
00000000 l    df *ABS*	00000000 gesf2.c
00000000 l    df *ABS*	00000000 lesf2.c
00000000 l    df *ABS*	00000000 adddf3.c
00000000 l    df *ABS*	00000000 eqdf2.c
00000000 l    df *ABS*	00000000 gedf2.c
00000000 l    df *ABS*	00000000 ledf2.c
00000000 l    df *ABS*	00000000 muldf3.c
00000000 l    df *ABS*	00000000 subdf3.c
00000000 l    df *ABS*	00000000 fixdfsi.c
00000000 l    df *ABS*	00000000 floatsidf.c
00000000 l    df *ABS*	00000000 floatunsidf.c
00000000 l    df *ABS*	00000000 alt_close.c
0205b4a4 l     F .text	00000050 alt_get_errno
00000000 l    df *ABS*	00000000 alt_dev.c
0205b5c4 l     F .text	0000002c alt_dev_null_write
00000000 l    df *ABS*	00000000 alt_errno.c
00000000 l    df *ABS*	00000000 alt_fstat.c
0205b5f0 l     F .text	00000050 alt_get_errno
00000000 l    df *ABS*	00000000 alt_isatty.c
0205b6f0 l     F .text	00000050 alt_get_errno
00000000 l    df *ABS*	00000000 alt_load.c
0205b7e4 l     F .text	00000064 alt_load_section
00000000 l    df *ABS*	00000000 alt_lseek.c
0205b8c8 l     F .text	00000050 alt_get_errno
00000000 l    df *ABS*	00000000 alt_main.c
00000000 l    df *ABS*	00000000 alt_malloc_lock.c
00000000 l    df *ABS*	00000000 alt_open.c
0205baa4 l     F .text	00000050 alt_get_errno
0205baf4 l     F .text	000000cc alt_file_locked
00000000 l    df *ABS*	00000000 alt_read.c
0205bd18 l     F .text	00000050 alt_get_errno
00000000 l    df *ABS*	00000000 alt_release_fd.c
00000000 l    df *ABS*	00000000 alt_sbrk.c
0206462c l     O .rwdata	00000004 heap_end
00000000 l    df *ABS*	00000000 alt_tick.c
00000000 l    df *ABS*	00000000 alt_usleep.c
00000000 l    df *ABS*	00000000 alt_write.c
0205c140 l     F .text	00000050 alt_get_errno
00000000 l    df *ABS*	00000000 alt_sys_init.c
0205c288 l     F .text	00000038 alt_dev_reg
020632d4 l     O .rwdata	000000dc cfi_flash
020633b0 l     O .rwdata	00001060 jtag_uart
02064410 l     O .rwdata	00000120 lcd
02064530 l     O .rwdata	000000c4 rs232
00000000 l    df *ABS*	00000000 altera_avalon_cfi_flash.c
0205c390 l     F .text	00000038 alt_flash_device_register
00000000 l    df *ABS*	00000000 altera_avalon_cfi_flash_table.c
0205d1cc l     F .text	00000080 alt_read_16bit_query_entry
00000000 l    df *ABS*	00000000 altera_avalon_jtag_uart_fd.c
00000000 l    df *ABS*	00000000 altera_avalon_jtag_uart_init.c
0205e298 l     F .text	00000204 altera_avalon_jtag_uart_irq
0205e49c l     F .text	000000a8 altera_avalon_jtag_uart_timeout
00000000 l    df *ABS*	00000000 altera_avalon_jtag_uart_ioctl.c
00000000 l    df *ABS*	00000000 altera_avalon_jtag_uart_read.c
00000000 l    df *ABS*	00000000 altera_avalon_jtag_uart_write.c
00000000 l    df *ABS*	00000000 altera_avalon_lcd_16207.c
02064638 l     O .rwdata	00000004 colstart
0205eabc l     F .text	000000b4 lcd_write_command
0205eb70 l     F .text	000000d4 lcd_write_data
0205ec44 l     F .text	000000cc lcd_clear_screen
0205ed10 l     F .text	000001e8 lcd_repaint_screen
0205eef8 l     F .text	000000c8 lcd_scroll_up
0205efc0 l     F .text	000002a0 lcd_handle_escape
0205f748 l     F .text	000000ac alt_lcd_16207_timeout
00000000 l    df *ABS*	00000000 altera_avalon_lcd_16207_fd.c
00000000 l    df *ABS*	00000000 altera_avalon_timer_sc.c
0205f98c l     F .text	00000074 alt_avalon_timer_sc_irq
00000000 l    df *ABS*	00000000 altera_avalon_uart_fd.c
00000000 l    df *ABS*	00000000 altera_avalon_uart_init.c
0205fc40 l     F .text	00000098 altera_avalon_uart_irq
0205fcd8 l     F .text	000000e0 altera_avalon_uart_rxirq
0205fdb8 l     F .text	00000144 altera_avalon_uart_txirq
00000000 l    df *ABS*	00000000 altera_avalon_uart_read.c
0205ff50 l     F .text	00000050 alt_get_errno
00000000 l    df *ABS*	00000000 altera_avalon_uart_write.c
0206017c l     F .text	00000050 alt_get_errno
00000000 l    df *ABS*	00000000 alt_alarm_start.c
00000000 l    df *ABS*	00000000 alt_busy_sleep.c
00000000 l    df *ABS*	00000000 alt_dcache_flush.c
00000000 l    df *ABS*	00000000 alt_dcache_flush_all.c
00000000 l    df *ABS*	00000000 alt_dev_llist_insert.c
020606c8 l     F .text	00000050 alt_get_errno
00000000 l    df *ABS*	00000000 alt_do_ctors.c
00000000 l    df *ABS*	00000000 alt_do_dtors.c
00000000 l    df *ABS*	00000000 alt_find_dev.c
00000000 l    df *ABS*	00000000 alt_find_file.c
00000000 l    df *ABS*	00000000 alt_flash_dev.c
00000000 l    df *ABS*	00000000 alt_get_fd.c
00000000 l    df *ABS*	00000000 alt_icache_flush_all.c
00000000 l    df *ABS*	00000000 alt_iic.c
00000000 l    df *ABS*	00000000 alt_iic_isr_register.c
00000000 l    df *ABS*	00000000 alt_io_redirect.c
02060e84 l     F .text	000000c0 alt_open_fd
00000000 l    df *ABS*	00000000 alt_irq_vars.c
00000000 l    df *ABS*	00000000 altera_nios2_qsys_irq.c
00000000 l    df *ABS*	00000000 altera_avalon_cfi_flash_amd.c
02061370 l     F .text	000000cc alt_write_word_amd
02061254 l     F .text	0000011c alt_wait_for_command_to_complete_amd
00000000 l    df *ABS*	00000000 altera_avalon_cfi_flash_intel.c
02061644 l     F .text	00000178 alt_unlock_block_intel
020617bc l     F .text	000000d4 alt_write_word_intel
00000000 l    df *ABS*	00000000 alt_icache_flush.c
00000000 l    df *ABS*	00000000 atexit.c
00000000 l    df *ABS*	00000000 exit.c
00000000 l    df *ABS*	00000000 memcmp.c
00000000 l    df *ABS*	00000000 __atexit.c
00000000 l    df *ABS*	00000000 __call_atexit.c
00000000 l    df *ABS*	00000000 alt_exit.c
02048a34 g     F .text	00000018 putchar
020520d8 g     F .text	00000074 _mprec_log10
020521c4 g     F .text	0000008c __any_on
02050c84 g     F .text	00000054 _isatty_r
02062660 g     O .rodata	00000028 __mprec_tinytens
0205b9ec g     F .text	00000078 alt_main
02048a4c g     F .text	000000b8 _puts_r
0205cc98 g     F .text	00000040 alt_read_query_entry_32bit
02040994 g     F .text	0000006c Fat_FileBrowseBegin
020665c8 g     O .bss	00000100 alt_irq
02050de8 g     F .text	0000005c _lseek_r
0205c458 g     F .text	000002a8 alt_flash_cfi_write
02064648 g       *ABS*	00000000 __flash_rwdata_start
020504c8 g     F .text	00000098 __sflags
0205a070 g     F .text	00000084 .hidden __eqdf2
02043c60 g     F .text	00000080 SDLIB_WriteBlock512
020666c8 g       *ABS*	00000000 __alt_heap_start
020489f0 g     F .text	0000003c printf
020587cc g     F .text	0000009c _wcrtomb_r
020450e8 g     F .text	000001a8 SD_CMD24
02048f34 g     F .text	0000005c __sseek
020470c8 g     F .text	00000010 __sinit
020576c8 g     F .text	00000154 __swbuf_r
02050d08 g     F .text	0000007c _setlocale_r
02046f34 g     F .text	00000064 __sfmoreglue
02056218 g     F .text	0000001c ungetc
0205ba84 g     F .text	00000020 __malloc_unlock
02040a00 g     F .text	0000042c Fat_FileBrowseNext
02052b94 g     F .text	00001540 _strtod_r
020454b0 g     F .text	00000450 .hidden __divsf3
02042ec4 g     F .text	0000002c SDHAL_IsSupport4Bits
02042e04 g     F .text	00000050 crc7_byte
020421dc g     F .text	000000a8 fatIsValidDir
02051168 g     F .text	0000015c memmove
020470b0 g     F .text	00000018 _cleanup
020512c4 g     F .text	000000a8 _Balloc
0205a0f4 g     F .text	000000e0 .hidden __gtdf2
00000000  w      *UND*	00000000 __errno
0205ce30 g     F .text	00000050 alt_write_flash_command_32bit_device_16bit_mode
02040000 g     F .entry	0000001c __reset
02043028 g     F .text	000001ec SDHAL_GetResponse
02040020 g       *ABS*	00000000 __flash_exceptions_start
020402b8 g     F .text	00000080 LCD_Clear
02047ab0 g     F .text	00000058 _fstat_r
0205c948 g     F .text	000002d4 alt_flash_program_block
02066434 g     O .bss	00000004 errno
0204e820 g     F .text	00000024 __svfscanf
02048eb0 g     F .text	00000008 __seofread
02054f54 g     F .text	00001068 ___svfiprintf_internal_r
02041c18 g     F .text	00000168 fatNextCluster
02066454 g     O .bss	00000004 alt_argv
0206c5f4 g       *ABS*	00000000 _gp
0205c110 g     F .text	00000030 usleep
02063154 g     O .rwdata	00000180 alt_fd_list
02048a2c g     F .text	00000008 _putchar_r
02060874 g     F .text	00000090 alt_find_dev
0204870c g     F .text	00000138 memcpy
02058478 g     F .text	00000294 __hexnan
02046d88 g     F .text	0000000c _cleanup_r
0205b330 g     F .text	000000d0 .hidden __floatsidf
02060f44 g     F .text	00000078 alt_io_redirect
0205a1d4 g     F .text	000000e0 .hidden __ltdf2
02061cc0 g       *ABS*	00000000 __DTOR_END__
020410dc g     F .text	000000b0 Fat_FileExist
02048b04 g     F .text	00000014 puts
02050ef0 g     F .text	000000f0 mbrtowc
020529b4 g     F .text	00000074 __fpclassifyd
02044260 g     F .text	00000198 SD_CMD2
0204e844 g     F .text	0000004c _vfscanf_r
02052034 g     F .text	000000a4 __ratio
020576a4 g     F .text	00000024 __vfiprintf_internal
0205e698 g     F .text	0000020c altera_avalon_jtag_uart_read
02047f3c g     F .text	00000014 malloc
020489c4 g     F .text	0000002c _printf_r
020454a0 g     F .text	00000008 .hidden __udivsi3
0205b740 g     F .text	000000a4 isatty
02050cd8 g     F .text	00000030 iswspace
020626b0 g     O .rodata	000000c8 __mprec_tens
02044dc0 g     F .text	00000180 SD_ACMD42
02050d84 g     F .text	0000000c __locale_charset
0204e980 g     F .text	00000040 vsnprintf
0205971c g     F .text	000000b8 .hidden __lesf2
02058a2c g     F .text	00000074 .hidden __fixunsdfsi
02061890 g     F .text	0000008c alt_icache_flush
02066440 g     O .bss	00000004 __malloc_top_pad
02054a14 g     F .text	00000024 strtoul
02064608 g     O .rwdata	00000004 __mb_cur_max
02050db4 g     F .text	0000000c _localeconv_r
02054a38 g     F .text	00000354 _strtoull_r
02044914 g     F .text	00000180 SD_CMD7
020516c4 g     F .text	0000003c __i2b
020507e0 g     F .text	000004a4 __sfvwrite_r
02048cdc g     F .text	00000054 _sbrk_r
0206143c g     F .text	00000080 alt_program_intel
02044a94 g     F .text	000001a0 SD_CMD16
02045310 g     F .text	00000074 ArrayToU32
020523b8 g     F .text	0000005c _read_r
02060610 g     F .text	00000074 alt_dcache_flush
02064624 g     O .rwdata	00000004 alt_max_fd
0205cc1c g     F .text	0000003c alt_read_query_entry_8bit
02042738 g     F .text	00000308 fatMount
02046a0c g     F .text	00000100 _fclose_r
020614bc g     F .text	00000188 alt_erase_block_intel
02046d48 g     F .text	00000030 fflush
0206643c g     O .bss	00000004 __malloc_max_sbrked_mem
02040258 g     F .text	00000060 LCD_TextOut
02046700 g     F .text	00000110 .hidden __extendsfdf2
020597d4 g     F .text	0000089c .hidden __adddf3
020595f0 g     F .text	00000074 .hidden __nesf2
02042284 g     F .text	00000048 fatIsUnusedDir
02051ddc g     F .text	0000011c __b2d
02059060 g     F .text	00000590 .hidden __umoddi3
0205b918 g     F .text	000000d4 lseek
020645f4 g     O .rwdata	00000004 _global_impure_ptr
02052414 g     F .text	000005a0 _realloc_r
020666c8 g       *ABS*	00000000 __bss_end
02060d94 g     F .text	000000f0 alt_iic_isr_register
0205c00c g     F .text	00000104 alt_tick
020664c8 g     O .bss	00000100 __hexdig
02058aa0 g     F .text	000005c0 .hidden __udivdi3
020578fc g     F .text	00000184 _fputwc_r
02062688 g     O .rodata	00000028 __mprec_bigtens
020514a8 g     F .text	00000104 __s2b
0205b400 g     F .text	000000a4 .hidden __floatunsidf
02051b84 g     F .text	00000060 __mcmp
0205fb98 g     F .text	000000a8 altera_avalon_uart_init
02042a40 g     F .text	0000003c SD_ReadBlock512
020470e8 g     F .text	00000018 __fp_lock_all
02060d48 g     F .text	0000004c alt_ic_irq_enabled
0204118c g     F .text	00000128 Fat_FileOpen
0205bf74 g     F .text	00000098 alt_alarm_stop
02054454 g     F .text	00000024 strtol
02040338 g     F .text	0000003c LCD_Close
02066464 g     O .bss	00000004 alt_irq_active
02041ef8 g     F .text	000001e8 fatDelClusterList
020400ec g     F .exceptions	000000d0 alt_irq_handler
0206312c g     O .rwdata	00000028 alt_dev_null
02042f48 g     F .text	000000e0 SDHAL_SendCmd
0205d130 g     F .text	0000009c alt_set_flash_algorithm_func
02060684 g     F .text	00000044 alt_dcache_flush_all
020515ac g     F .text	00000068 __hi0bits
02043214 g     F .text	00000498 SDHAL_ReadData
0205b2a8 g     F .text	00000088 .hidden __fixdfsi
0205ccd8 g     F .text	00000044 alt_write_flash_command_8bit_device_8bit_mode
020540d4 g     F .text	0000001c strtod
02064648 g       *ABS*	00000000 __ram_rwdata_end
0206461c g     O .rwdata	00000008 alt_dev_list
02040898 g     F .text	00000044 Fat_Mount
0205c190 g     F .text	000000f8 write
02052250 g     F .text	000000a0 _putc_r
02059664 g     F .text	000000b8 .hidden __gtsf2
02062860 g       *ABS*	00000000 __ram_rodata_end
0205b640 g     F .text	000000b0 fstat
0205a1d4 g     F .text	000000e0 .hidden __ledf2
02042bdc g     F .text	0000006c myprintf
0205df98 g     F .text	000000d8 alt_check_primary_table
020518fc g     F .text	00000140 __pow5mult
02056348 g     F .text	0000135c ___vfiprintf_internal_r
0206644c g     O .bss	00000004 __nlocale_changed
020454a8 g     F .text	00000008 .hidden __umodsi3
0205c78c g     F .text	00000064 alt_flash_cfi_read
0205ced0 g     F .text	00000038 alt_write_native_8bit
02048d6c g     F .text	0000002c _scanf_r
020666c8 g       *ABS*	00000000 end
0205cd1c g     F .text	00000078 alt_write_flash_command_16bit_device_8bit_mode
0205f260 g     F .text	000004e8 altera_avalon_lcd_16207_write
020601cc g     F .text	000001ac altera_avalon_uart_write
02047a8c g     F .text	00000024 fseek
0205d24c g     F .text	000005c8 alt_read_cfi_table
0205e1d4 g     F .text	000000c4 altera_avalon_jtag_uart_init
02061cc0 g       *ABS*	00000000 __CTOR_LIST__
02080000 g       *ABS*	00000000 __alt_stack_pointer
0205fa00 g     F .text	00000088 alt_avalon_timer_sc_init
0205fae8 g     F .text	00000060 altera_avalon_uart_write_fd
020469a8 g     F .text	00000064 .hidden __clzsi2
0205fb48 g     F .text	00000050 altera_avalon_uart_close_fd
0205e8a4 g     F .text	00000218 altera_avalon_jtag_uart_write
02041868 g     F .text	00000044 Fat_FileClose
0205c3c8 g     F .text	00000090 alt_flash_cfi_init
020470d8 g     F .text	00000004 __sfp_lock_acquire
02040e2c g     F .text	0000006c Fat_FileCount
02051080 g     F .text	000000e8 memchr
0204b030 g     F .text	00001ffc ___vfprintf_internal_r
02048d98 g     F .text	00000058 _sprintf_r
02047348 g     F .text	000002f0 _free_r
02050d90 g     F .text	00000010 __locale_mb_cur_max
02061af8 g     F .text	00000194 __call_exitprocs
02066448 g     O .bss	00000004 __mlocale_changed
020645fc g     O .rwdata	00000004 __malloc_sbrk_base
020401bc g     F .text	0000004c _start
0206645c g     O .bss	00000004 _alt_tick_rate
02054478 g     F .text	00000314 _strtoll_r
02051a3c g     F .text	00000148 __lshift
02066460 g     O .bss	00000004 _alt_nticks
02043d30 g     F .text	00000088 SD_CMD0
0205bd68 g     F .text	000000fc read
0205c2f4 g     F .text	0000009c alt_sys_init
02054d8c g     F .text	000001c8 __ssprint_r
02048968 g     F .text	0000005c _open_r
020619e4 g     F .text	00000114 __register_exitproc
0205870c g     F .text	000000c0 strncmp
02043854 g     F .text	00000058 SDHAL_DummyClock
020412b4 g     F .text	00000044 Fat_FileSize
0205cc58 g     F .text	00000040 alt_read_query_entry_16bit
02042d60 g     F .text	000000a4 crc16
02051700 g     F .text	000001fc __multiply
02043ce0 g     F .text	00000028 SD_Init
0205e544 g     F .text	00000068 altera_avalon_jtag_uart_close
02062860 g       *ABS*	00000000 __ram_rwdata_start
02061cc0 g       *ABS*	00000000 __ram_rodata_start
020664a0 g     O .bss	00000028 __malloc_current_mallinfo
020595f0 g     F .text	00000074 .hidden __eqsf2
0205cf74 g     F .text	000001bc alt_set_flash_width_func
02051ef8 g     F .text	0000013c __d2b
02048f98 g     F .text	00000070 strcasecmp
0205e070 g     F .text	00000060 altera_avalon_jtag_uart_read_fd
0205478c g     F .text	00000288 _strtoul_r
02060ad0 g     F .text	000000b4 alt_get_fd
020604b8 g     F .text	00000158 alt_busy_sleep
0204eb4c g     F .text	00000054 _close_r
02061044 g     F .text	00000210 alt_erase_block_amd
020412f8 g     F .text	00000470 Fat_FileRead
02061968 g     F .text	0000007c memcmp
0205e130 g     F .text	00000050 altera_avalon_jtag_uart_close_fd
020666c8 g       *ABS*	00000000 __alt_stack_base
0205e180 g     F .text	00000054 altera_avalon_jtag_uart_ioctl_fd
02047c78 g     F .text	000000cc _fwrite_r
02042628 g     F .text	00000110 fatFindUnusedDirectory
02042ef0 g     F .text	00000058 SDHAL_Init
0204ea1c g     F .text	00000130 __swsetup_r
0205d814 g     F .text	00000784 alt_read_cfi_width
02045e34 g     F .text	000008cc .hidden __divdf3
02046f98 g     F .text	00000118 __sfp
0205214c g     F .text	00000078 __copybits
02062c84 g     O .rwdata	00000408 __malloc_av_
020470e4 g     F .text	00000004 __sinit_lock_release
0204e890 g     F .text	000000f0 _vsnprintf_r
0205a2b4 g     F .text	00000724 .hidden __muldf3
02048e5c g     F .text	00000054 __sread
020507a0 g     F .text	00000040 fread
020418ac g     F .text	000001f0 Fat_SpeedTest
02060904 g     F .text	00000114 alt_find_file
02060718 g     F .text	000000a4 alt_dev_llist_insert
0205ba64 g     F .text	00000020 __malloc_lock
0205bec4 g     F .text	000000b0 sbrk
020490a0 g     F .text	00001f90 ___svfprintf_internal_r
02046b20 g     F .text	00000228 _fflush_r
02057838 g     F .text	000000c4 _calloc_r
0206463c g     O .rwdata	00000008 alt_flash_dev_list
0205cde4 g     F .text	0000004c alt_write_flash_command_16bit_device_16bit_mode
0204257c g     F .text	000000ac fatFindDirectory
02047208 g     F .text	0000001c fopen
02066430 g       *ABS*	00000000 __bss_start
02048844 g     F .text	00000124 memset
02040764 g     F .text	00000134 main
020424ec g     F .text	00000090 fatReadSecter
02066458 g     O .bss	00000004 alt_envp
02066438 g     O .bss	00000004 __malloc_max_total_mem
02042c48 g     F .text	00000088 myprintf_hexarray
0205e0d0 g     F .text	00000060 altera_avalon_jtag_uart_write_fd
0205781c g     F .text	0000001c __swbuf
0205971c g     F .text	000000b8 .hidden __ltsf2
02050560 g     F .text	00000240 _fread_r
0205f7f4 g     F .text	00000138 altera_avalon_lcd_16207_init
02048f90 g     F .text	00000008 __sclose
020422cc g     F .text	00000198 fatDump
02080000 g       *ABS*	00000000 __alt_heap_limit
02046b0c g     F .text	00000014 fclose
020541f4 g     F .text	00000260 _strtol_r
02046810 g     F .text	00000198 .hidden __truncdfsf2
0204eda0 g     F .text	00001728 _dtoa_r
02047f64 g     F .text	000007a8 _malloc_r
02058940 g     F .text	00000030 __ascii_wctomb
020452d0 g     F .text	00000040 SD_WriteData
02064628 g     O .rwdata	00000004 alt_errno
02055fbc g     F .text	000000d4 __submore
0205ce80 g     F .text	00000050 alt_write_flash_command_32bit_device_32bit_mode
02047b08 g     F .text	000000b8 _fwalk
0205c7f0 g     F .text	00000158 alt_write_value_to_flash
02051024 g     F .text	0000005c _mbtowc_r
020420e0 g     F .text	0000005c fatDumpDate
0205cf08 g     F .text	00000038 alt_write_native_16bit
02042e54 g     F .text	00000070 crc7
020522f0 g     F .text	000000c8 putc
02041768 g     F .text	00000100 Fat_FileSeek
020453f0 g     F .text	00000054 .hidden __divsi3
02040208 g     F .text	00000050 LCD_Open
02044c34 g     F .text	0000018c SD_ACMD6
01800000 g       *ABS*	00000000 __alt_mem_cfi_flash
02047224 g     F .text	00000124 _malloc_trim_r
02061cc0 g       *ABS*	00000000 __CTOR_END__
02045900 g     F .text	00000424 .hidden __mulsf3
02052af0 g     F .text	000000a4 strcmp
02042a7c g     F .text	0000003c SD_WriteBlock512
02061cc0 g       *ABS*	00000000 __flash_rodata_start
02061cc0 g       *ABS*	00000000 __DTOR_LIST__
02042464 g     F .text	00000088 fatArray2Value
02043d08 g     F .text	00000028 SD_IsSupport4Bits
0205a070 g     F .text	00000084 .hidden __nedf2
02041b4c g     F .text	000000cc fat32ClusterType
0205c2c0 g     F .text	00000034 alt_irq_init
0205be64 g     F .text	00000060 alt_release_fd
02048df0 g     F .text	0000006c sprintf
02062200 g     O .rodata	00000100 .hidden __clz_tab
02042bac g     F .text	00000030 debug_output
02066444 g     O .bss	00000004 _PathLocale
020440c4 g     F .text	0000019c SD_ACMD41
020540f0 g     F .text	00000104 strtof
0206191c g     F .text	00000014 atexit
02059664 g     F .text	000000b8 .hidden __gesf2
0204e9c0 g     F .text	0000005c _write_r
02043db8 g     F .text	0000018c SD_CMD8
02040f2c g     F .text	000001b0 fatComposeShortFilename
02050dc0 g     F .text	0000001c setlocale
02048d30 g     F .text	0000003c scanf
02052ae8 g     F .text	00000008 nanf
020645f8 g     O .rwdata	00000004 _impure_ptr
02066450 g     O .bss	00000004 alt_argc
02050e44 g     F .text	000000ac _mbrtowc_r
02060818 g     F .text	0000005c _do_dtors
02050dac g     F .text	00000008 __locale_cjk_lang
02040928 g     F .text	0000006c Fat_Type
02042cd0 g     F .text	00000090 myprintf_dwordarray
02047638 g     F .text	00000454 _fseek_r
02048b34 g     F .text	000001a8 __srefill_r
02040020 g       .exceptions	00000000 alt_irq_entry
02050fe0 g     F .text	00000044 __ascii_mbtowc
02051d7c g     F .text	00000060 __ulp
02047100 g     F .text	00000018 __fp_unlock_all
02040374 g     F .text	000003f0 Fat_Test
02041a9c g     F .text	000000b0 fat16ClusterType
0205f92c g     F .text	00000060 altera_avalon_lcd_16207_write_fd
02064614 g     O .rwdata	00000008 alt_fs_list
02043f44 g     F .text	00000180 SD_CMD55
0205cd94 g     F .text	00000050 alt_write_flash_command_32bit_device_8bit_mode
02044754 g     F .text	000001c0 SD_CMD10
02040020 g       *ABS*	00000000 __ram_exceptions_start
02050ddc g     F .text	0000000c localeconv
02040000 g       *ABS*	00000000 __alt_mem_onchip_memory2
02040e98 g     F .text	00000094 fatSameLongFilename
02060bb4 g     F .text	00000050 alt_ic_isr_register
02047d44 g     F .text	00000040 fwrite
02057bd8 g     F .text	00000084 __hexdig_init
02064648 g       *ABS*	00000000 _edata
0204213c g     F .text	0000005c fatDumpTime
0205fa88 g     F .text	00000060 altera_avalon_uart_read_fd
020666c8 g       *ABS*	00000000 _end
02060a18 g     F .text	00000068 alt_flash_open_dev
02044594 g     F .text	000001c0 SD_CMD9
020401bc g       *ABS*	00000000 __ram_exceptions_end
0204e7b8 g     F .text	00000068 vfscanf
0205e5ac g     F .text	000000ec altera_avalon_jtag_uart_ioctl
02060ca4 g     F .text	000000a4 alt_ic_irq_disable
02048eb8 g     F .text	0000007c __swrite
02064600 g     O .rwdata	00000004 __malloc_trim_threshold
02060fbc g     F .text	00000020 altera_nios2_qsys_irq_init
02050da0 g     F .text	0000000c __locale_msgcharset
02061930 g     F .text	00000038 exit
02042ab8 g     F .text	000000f4 fatMountSdcard
02047bc0 g     F .text	000000b8 _fwalk_reent
02045d24 g     F .text	00000110 .hidden __floatunsisf
02051be4 g     F .text	00000198 __mdiff
02060a80 g     F .text	00000050 alt_flash_close_dev
02045444 g     F .text	0000005c .hidden __modsi3
02064604 g     O .rwdata	00000004 __ctype_ptr__
02080000 g       *ABS*	00000000 __alt_data_end
02040020 g     F .exceptions	00000000 alt_exception
020470dc g     F .text	00000004 __sfp_lock_release
02052a28 g     F .text	000000c0 __sccl
020438ac g     F .text	00000334 SDLIB_Init
020623b4 g     O .rodata	00000101 _ctype_
02044f40 g     F .text	000001a8 SD_CMD17
0206460c g     O .rwdata	00000004 __mbtowc
0205fefc g     F .text	00000054 altera_avalon_uart_close
02047118 g     F .text	000000f0 _fopen_r
02061c8c g     F .text	00000034 _exit
02060378 g     F .text	00000140 alt_alarm_start
020589cc g     F .text	00000060 .hidden __muldi3
02047d84 g     F .text	000001b8 __smakebuf_r
0205cf40 g     F .text	00000034 alt_write_native_32bit
02049008 g     F .text	00000098 strlen
0205bbc0 g     F .text	00000158 open
0205a0f4 g     F .text	000000e0 .hidden __gedf2
02057c5c g     F .text	0000081c __gethex
0205c700 g     F .text	0000008c alt_flash_cfi_get_info
02064610 g     O .rwdata	00000004 __wctomb
02056330 g     F .text	00000018 __sprint_r
02060b84 g     F .text	00000030 alt_icache_flush_all
02064644 g     O .rwdata	00000004 alt_priority_mask
02060c04 g     F .text	000000a0 alt_ic_irq_enable
020436ac g     F .text	000001a8 SDHAL_WriteData
0204d02c g     F .text	00000024 __vfprintf_internal
02041d80 g     F .text	00000178 fatFindUnusedCluster
0205ffa0 g     F .text	000001dc altera_avalon_uart_read
02058970 g     F .text	0000005c _wctomb_r
0205a9d8 g     F .text	000008d0 .hidden __subdf3
02051614 g     F .text	000000b0 __lo0bits
0204d050 g     F .text	00001768 __svfscanf_r
02064630 g     O .rwdata	00000008 alt_alarm_list
02056090 g     F .text	00000188 _ungetc_r
020607bc g     F .text	0000005c _do_ctors
02045290 g     F .text	00000040 SD_ReadData
02058868 g     F .text	000000d8 wcrtomb
0205b4f4 g     F .text	000000d0 close
02060fdc g     F .text	00000068 alt_program_amd
020408dc g     F .text	0000004c Fat_Unmount
0205b848 g     F .text	00000080 alt_load
02057a80 g     F .text	00000058 fputwc
02047f50 g     F .text	00000014 free
020470e0 g     F .text	00000004 __sinit_lock_acquire
02051394 g     F .text	00000114 __multadd
02042198 g     F .text	00000044 fatIsLastDir
0205136c g     F .text	00000028 _Bfree
020443f8 g     F .text	0000019c SD_CMD3
02043be0 g     F .text	00000080 SDLIB_ReadBlock512



Disassembly of section .entry:

02040000 <__reset>:
#if NIOS2_ICACHE_SIZE > 0 && defined(ALT_ALLOW_CODE_AT_RESET) && !defined(ALT_SIM_OPTIMIZE)
    /* Assume the instruction cache size is always a power of two. */
#if NIOS2_ICACHE_SIZE > 0x8000
    movhi r2, %hi(NIOS2_ICACHE_SIZE)
#else
    movui r2, NIOS2_ICACHE_SIZE
 2040000:	00840014 	movui	r2,4096
#endif

0:
    initi r2
 2040004:	1001483a 	initi	r2
    addi r2, r2, -NIOS2_ICACHE_LINE_SIZE
 2040008:	10bff804 	addi	r2,r2,-32
    bgt r2, zero, 0b
 204000c:	00bffd16 	blt	zero,r2,2040004 <__alt_data_end+0xfffc0004>
 * Jump to the _start entry point in the .text section if reset code
 * is allowed or if optimizing for RTL simulation.
 */
#if defined(ALT_ALLOW_CODE_AT_RESET) || defined(ALT_SIM_OPTIMIZE)
    /* Jump to the _start entry point in the .text section. */
    movhi r1, %hi(_start)
 2040010:	00408134 	movhi	at,516
    ori r1, r1, %lo(_start)
 2040014:	08406f14 	ori	at,at,444
    jmp r1
 2040018:	0800683a 	jmp	at
 204001c:	00000000 	call	0 <__alt_mem_cfi_flash-0x1800000>

Disassembly of section .exceptions:

02040020 <alt_exception>:

#else /* ALT_EXCEPTION_STACK disabled */
        /* 
         * Reserve space on normal stack for registers about to be pushed.
         */
        addi  sp, sp, -76
 2040020:	deffed04 	addi	sp,sp,-76
         * documentation for details).
         *
         * Leave a gap in the stack frame at 4(sp) for the muldiv handler to
         * store zero into.
         */
        stw   ra,  0(sp)
 2040024:	dfc00015 	stw	ra,0(sp)
        stw   r1,   8(sp)
 2040028:	d8400215 	stw	at,8(sp)
        stw   r2,  12(sp)
 204002c:	d8800315 	stw	r2,12(sp)
        stw   r3,  16(sp)
 2040030:	d8c00415 	stw	r3,16(sp)
        stw   r4,  20(sp)
 2040034:	d9000515 	stw	r4,20(sp)
        stw   r5,  24(sp)
 2040038:	d9400615 	stw	r5,24(sp)
        stw   r6,  28(sp)
 204003c:	d9800715 	stw	r6,28(sp)
        stw   r7,  32(sp)
 2040040:	d9c00815 	stw	r7,32(sp)
        rdctl r5, estatus   /* Read early to avoid usage stall */
 2040044:	000b307a 	rdctl	r5,estatus
        stw   r8,  36(sp)
 2040048:	da000915 	stw	r8,36(sp)
        stw   r9,  40(sp)
 204004c:	da400a15 	stw	r9,40(sp)
        stw   r10, 44(sp)
 2040050:	da800b15 	stw	r10,44(sp)
        stw   r11, 48(sp)
 2040054:	dac00c15 	stw	r11,48(sp)
        stw   r12, 52(sp)
 2040058:	db000d15 	stw	r12,52(sp)
        stw   r13, 56(sp)
 204005c:	db400e15 	stw	r13,56(sp)
        stw   r14, 60(sp)
 2040060:	db800f15 	stw	r14,60(sp)
        stw   r15, 64(sp)
 2040064:	dbc01015 	stw	r15,64(sp)
        /*
         * ea-4 contains the address of the instruction being executed
         * when the exception occured. For interrupt exceptions, we will
         * will be re-issue the isntruction. Store it in 72(sp)
         */
        stw   r5,  68(sp)  /* estatus */
 2040068:	d9401115 	stw	r5,68(sp)
        addi  r15, ea, -4  /* instruction that caused exception */
 204006c:	ebffff04 	addi	r15,ea,-4
        stw   r15,  72(sp)
 2040070:	dbc01215 	stw	r15,72(sp)
#else
        /*
         * Test to see if the exception was a software exception or caused 
         * by an external interrupt, and vector accordingly.
         */
        rdctl r4, ipending
 2040074:	0009313a 	rdctl	r4,ipending
        andi  r2, r5, 1
 2040078:	2880004c 	andi	r2,r5,1
        beq   r2, zero, .Lnot_irq
 204007c:	10000326 	beq	r2,zero,204008c <alt_exception+0x6c>
        beq   r4, zero, .Lnot_irq
 2040080:	20000226 	beq	r4,zero,204008c <alt_exception+0x6c>
        /*
         * Now that all necessary registers have been preserved, call 
         * alt_irq_handler() to process the interrupts.
         */

        call alt_irq_handler
 2040084:	20400ec0 	call	20400ec <alt_irq_handler>

        .section .exceptions.irqreturn, "xa"

        br    .Lexception_exit
 2040088:	00000306 	br	2040098 <alt_exception_unknown+0x4>
         * upon completion, so we write ea (address of instruction *after*
         * the one where the exception occured) into 72(sp). The actual
         * instruction that caused the exception is written in r2, which these
         * handlers will utilize.
         */
        stw   ea,  72(sp)  /* Don't re-issue */
 204008c:	df401215 	stw	ea,72(sp)
        ldw   r2, -4(ea)   /* Instruction that caused exception */
 2040090:	e8bfff17 	ldw	r2,-4(ea)

02040094 <alt_exception_unknown>:
#ifdef NIOS2_HAS_DEBUG_STUB
       /*
        *  Either tell the user now (if there is a debugger attached) or go into
        *  the debug monitor which will loop until a debugger is attached.
        */
        break
 2040094:	003da03a 	break	0
        /* 
         * Restore the saved registers, so that all general purpose registers 
         * have been restored to their state at the time the interrupt occured.
         */

        ldw   r5,  68(sp)
 2040098:	d9401117 	ldw	r5,68(sp)
        ldw   ea,  72(sp)  /* This becomes the PC once eret is executed */
 204009c:	df401217 	ldw	ea,72(sp)
        ldw   ra,   0(sp)
 20400a0:	dfc00017 	ldw	ra,0(sp)

        wrctl estatus, r5
 20400a4:	2801707a 	wrctl	estatus,r5

        ldw   r1,   8(sp)
 20400a8:	d8400217 	ldw	at,8(sp)
        ldw   r2,  12(sp)
 20400ac:	d8800317 	ldw	r2,12(sp)
        ldw   r3,  16(sp)
 20400b0:	d8c00417 	ldw	r3,16(sp)
        ldw   r4,  20(sp)
 20400b4:	d9000517 	ldw	r4,20(sp)
        ldw   r5,  24(sp)
 20400b8:	d9400617 	ldw	r5,24(sp)
        ldw   r6,  28(sp)
 20400bc:	d9800717 	ldw	r6,28(sp)
        ldw   r7,  32(sp)
 20400c0:	d9c00817 	ldw	r7,32(sp)

#if defined(ALT_EXCEPTION_STACK) && defined(ALT_STACK_CHECK)
        ldw   et, %gprel(alt_exception_old_stack_limit)(gp)
#endif

        ldw   r8,  36(sp)
 20400c4:	da000917 	ldw	r8,36(sp)
        ldw   r9,  40(sp)
 20400c8:	da400a17 	ldw	r9,40(sp)
        ldw   r10, 44(sp)
 20400cc:	da800b17 	ldw	r10,44(sp)
        ldw   r11, 48(sp)
 20400d0:	dac00c17 	ldw	r11,48(sp)
        ldw   r12, 52(sp)
 20400d4:	db000d17 	ldw	r12,52(sp)
        ldw   r13, 56(sp)
 20400d8:	db400e17 	ldw	r13,56(sp)
        ldw   r14, 60(sp)
 20400dc:	db800f17 	ldw	r14,60(sp)
        ldw   r15, 64(sp)
 20400e0:	dbc01017 	ldw	r15,64(sp)
        stw   et, %gprel(alt_stack_limit_value)(gp)
        stw   zero, %gprel(alt_exception_old_stack_limit)(gp)
#endif /* ALT_STACK_CHECK */
        ldw   sp,  76(sp)
#else /* ALT_EXCEPTION_STACK disabled */
        addi  sp, sp, 76
 20400e4:	dec01304 	addi	sp,sp,76

        /*
         * Return to the interrupted instruction.
         */

        eret
 20400e8:	ef80083a 	eret

020400ec <alt_irq_handler>:
 * instruction is present if the macro ALT_CI_INTERRUPT_VECTOR defined.
 */

void alt_irq_handler (void) __attribute__ ((section (".exceptions")));
void alt_irq_handler (void)
{
 20400ec:	defff904 	addi	sp,sp,-28
 20400f0:	dfc00615 	stw	ra,24(sp)
 20400f4:	df000515 	stw	fp,20(sp)
 20400f8:	df000504 	addi	fp,sp,20
  
  /*
   * Notify the operating system that we are at interrupt level.
   */ 
  
  ALT_OS_INT_ENTER();
 20400fc:	0001883a 	nop
#ifndef NIOS2_EIC_PRESENT
static ALT_INLINE alt_u32 ALT_ALWAYS_INLINE alt_irq_pending (void)
{
  alt_u32 active;

  NIOS2_READ_IPENDING (active);
 2040100:	0005313a 	rdctl	r2,ipending
 2040104:	e0bffe15 	stw	r2,-8(fp)

  return active;
 2040108:	e0bffe17 	ldw	r2,-8(fp)
   * Consider the case where the high priority interupt is asserted during
   * the interrupt entry sequence for a lower priority interrupt to see why
   * this is the case.
   */

  active = alt_irq_pending ();
 204010c:	e0bffb15 	stw	r2,-20(fp)

  do
  {
    i = 0;
 2040110:	e03ffd15 	stw	zero,-12(fp)
    mask = 1;
 2040114:	00800044 	movi	r2,1
 2040118:	e0bffc15 	stw	r2,-16(fp)
     * called to clear the interrupt condition.
     */

    do
    {
      if (active & mask)
 204011c:	e0fffb17 	ldw	r3,-20(fp)
 2040120:	e0bffc17 	ldw	r2,-16(fp)
 2040124:	1884703a 	and	r2,r3,r2
 2040128:	10001426 	beq	r2,zero,204017c <alt_irq_handler+0x90>
      { 
#ifdef ALT_ENHANCED_INTERRUPT_API_PRESENT
        alt_irq[i].handler(alt_irq[i].context); 
 204012c:	008081b4 	movhi	r2,518
 2040130:	10997204 	addi	r2,r2,26056
 2040134:	e0fffd17 	ldw	r3,-12(fp)
 2040138:	180690fa 	slli	r3,r3,3
 204013c:	10c5883a 	add	r2,r2,r3
 2040140:	10c00017 	ldw	r3,0(r2)
 2040144:	008081b4 	movhi	r2,518
 2040148:	10997204 	addi	r2,r2,26056
 204014c:	e13ffd17 	ldw	r4,-12(fp)
 2040150:	200890fa 	slli	r4,r4,3
 2040154:	1105883a 	add	r2,r2,r4
 2040158:	10800104 	addi	r2,r2,4
 204015c:	10800017 	ldw	r2,0(r2)
 2040160:	1009883a 	mov	r4,r2
 2040164:	183ee83a 	callr	r3
#else
        alt_irq[i].handler(alt_irq[i].context, i); 
#endif
        break;
 2040168:	0001883a 	nop
#ifndef NIOS2_EIC_PRESENT
static ALT_INLINE alt_u32 ALT_ALWAYS_INLINE alt_irq_pending (void)
{
  alt_u32 active;

  NIOS2_READ_IPENDING (active);
 204016c:	0005313a 	rdctl	r2,ipending
 2040170:	e0bfff15 	stw	r2,-4(fp)

  return active;
 2040174:	e0bfff17 	ldw	r2,-4(fp)
 2040178:	00000706 	br	2040198 <alt_irq_handler+0xac>
      }
      mask <<= 1;
 204017c:	e0bffc17 	ldw	r2,-16(fp)
 2040180:	1085883a 	add	r2,r2,r2
 2040184:	e0bffc15 	stw	r2,-16(fp)
      i++;
 2040188:	e0bffd17 	ldw	r2,-12(fp)
 204018c:	10800044 	addi	r2,r2,1
 2040190:	e0bffd15 	stw	r2,-12(fp)

    } while (1);
 2040194:	003fe106 	br	204011c <__alt_data_end+0xfffc011c>

    active = alt_irq_pending ();
 2040198:	e0bffb15 	stw	r2,-20(fp)
    
  } while (active);
 204019c:	e0bffb17 	ldw	r2,-20(fp)
 20401a0:	103fdb1e 	bne	r2,zero,2040110 <__alt_data_end+0xfffc0110>

  /*
   * Notify the operating system that interrupt processing is complete.
   */ 

  ALT_OS_INT_EXIT();
 20401a4:	0001883a 	nop
}
 20401a8:	e037883a 	mov	sp,fp
 20401ac:	dfc00117 	ldw	ra,4(sp)
 20401b0:	df000017 	ldw	fp,0(sp)
 20401b4:	dec00204 	addi	sp,sp,8
 20401b8:	f800283a 	ret

Disassembly of section .text:

020401bc <_start>:

    /* Assume the data cache size is always a power of two. */
#if NIOS2_DCACHE_SIZE > 0x8000
    movhi r2, %hi(NIOS2_DCACHE_SIZE)
#else
    movui r2, NIOS2_DCACHE_SIZE
 20401bc:	00820014 	movui	r2,2048
#endif

0:
    initd 0(r2)
 20401c0:	10000033 	initd	0(r2)
#ifdef NIOS2_ECC_PRESENT
    addi r2, r2, -4
#else
    addi r2, r2, -NIOS2_DCACHE_LINE_SIZE
 20401c4:	10bff804 	addi	r2,r2,-32
#endif
    bgt r2, zero, 0b
 20401c8:	00bffd16 	blt	zero,r2,20401c0 <__alt_data_end+0xfffc01c0>

    /*
     * Now that the caches are initialized, set up the stack pointer and global pointer.
     * The values provided by the linker are assumed to be correctly aligned.
     */
    movhi sp, %hi(__alt_stack_pointer)
 20401cc:	06c08234 	movhi	sp,520
    ori sp, sp, %lo(__alt_stack_pointer)
 20401d0:	dec00014 	ori	sp,sp,0
    movhi gp, %hi(_gp)
 20401d4:	068081b4 	movhi	gp,518
    ori gp, gp, %lo(_gp)
 20401d8:	d6b17d14 	ori	gp,gp,50676
 */
#ifndef ALT_SIM_OPTIMIZE
    /* Log that the BSS is about to be cleared. */
    ALT_LOG_PUTS(alt_log_msg_bss)

    movhi r2, %hi(__bss_start)
 20401dc:	008081b4 	movhi	r2,518
    ori r2, r2, %lo(__bss_start)
 20401e0:	10990c14 	ori	r2,r2,25648

    movhi r3, %hi(__bss_end)
 20401e4:	00c081b4 	movhi	r3,518
    ori r3, r3, %lo(__bss_end)
 20401e8:	18d9b214 	ori	r3,r3,26312

    beq r2, r3, 1f
 20401ec:	10c00326 	beq	r2,r3,20401fc <_start+0x40>

0:
    stw zero, (r2)
 20401f0:	10000015 	stw	zero,0(r2)
    addi r2, r2, 4
 20401f4:	10800104 	addi	r2,r2,4
    bltu r2, r3, 0b
 20401f8:	10fffd36 	bltu	r2,r3,20401f0 <__alt_data_end+0xfffc01f0>
     * section aren't defined until alt_load() has been called).
     */
    mov   et, zero
#endif

    call alt_load
 20401fc:	205b8480 	call	205b848 <alt_load>

    /* Log that alt_main is about to be called. */
    ALT_LOG_PUTS(alt_log_msg_alt_main)

    /* Call the C entry point. It should never return. */
    call alt_main
 2040200:	205b9ec0 	call	205b9ec <alt_main>

02040204 <alt_after_alt_main>:

    /* Wait in infinite loop in case alt_main does return. */
alt_after_alt_main:
    br alt_after_alt_main
 2040204:	003fff06 	br	2040204 <__alt_data_end+0xfffc0204>

02040208 <LCD_Open>:
#include ".\terasic_lib\terasic_includes.h"
#include ".\terasic_fat\FatFileSystem.h"

static FILE*fp=0;

bool LCD_Open(void){
 2040208:	defffe04 	addi	sp,sp,-8
 204020c:	dfc00115 	stw	ra,4(sp)
 2040210:	df000015 	stw	fp,0(sp)
 2040214:	d839883a 	mov	fp,sp
	fp = fopen(LCD_NAME, "w");
 2040218:	010081b4 	movhi	r4,518
 204021c:	21073004 	addi	r4,r4,7360
 2040220:	014081b4 	movhi	r5,518
 2040224:	29473304 	addi	r5,r5,7372
 2040228:	20472080 	call	2047208 <fopen>
 204022c:	d0a78f15 	stw	r2,-25028(gp)
	if(fp)
 2040230:	d0a78f17 	ldw	r2,-25028(gp)
 2040234:	10000226 	beq	r2,zero,2040240 <LCD_Open+0x38>
		return TRUE;
 2040238:	00800044 	movi	r2,1
 204023c:	00000106 	br	2040244 <LCD_Open+0x3c>
	return FALSE;
 2040240:	0005883a 	mov	r2,zero
}
 2040244:	e037883a 	mov	sp,fp
 2040248:	dfc00117 	ldw	ra,4(sp)
 204024c:	df000017 	ldw	fp,0(sp)
 2040250:	dec00204 	addi	sp,sp,8
 2040254:	f800283a 	ret

02040258 <LCD_TextOut>:
bool LCD_TextOut(char* pText){
 2040258:	defffd04 	addi	sp,sp,-12
 204025c:	dfc00215 	stw	ra,8(sp)
 2040260:	df000115 	stw	fp,4(sp)
 2040264:	df000104 	addi	fp,sp,4
 2040268:	e13fff15 	stw	r4,-4(fp)
	if(!fp)return FALSE;
 204026c:	d0a78f17 	ldw	r2,-25028(gp)
 2040270:	1000021e 	bne	r2,zero,204027c <LCD_TextOut+0x24>
 2040274:	0005883a 	mov	r2,zero
 2040278:	00000a06 	br	20402a4 <LCD_TextOut+0x4c>
	fwrite(pText, strlen(pText), 1, fp);
 204027c:	e13fff17 	ldw	r4,-4(fp)
 2040280:	20490080 	call	2049008 <strlen>
 2040284:	1007883a 	mov	r3,r2
 2040288:	d0a78f17 	ldw	r2,-25028(gp)
 204028c:	e13fff17 	ldw	r4,-4(fp)
 2040290:	180b883a 	mov	r5,r3
 2040294:	01800044 	movi	r6,1
 2040298:	100f883a 	mov	r7,r2
 204029c:	2047d440 	call	2047d44 <fwrite>
	return TRUE;
 20402a0:	00800044 	movi	r2,1
}
 20402a4:	e037883a 	mov	sp,fp
 20402a8:	dfc00117 	ldw	ra,4(sp)
 20402ac:	df000017 	ldw	fp,0(sp)
 20402b0:	dec00204 	addi	sp,sp,8
 20402b4:	f800283a 	ret

020402b8 <LCD_Clear>:
bool LCD_Clear(void){
 20402b8:	defff604 	addi	sp,sp,-40
 20402bc:	dfc00915 	stw	ra,36(sp)
 20402c0:	df000815 	stw	fp,32(sp)
 20402c4:	df000804 	addi	fp,sp,32
	char szText[32]="\n\n";
 20402c8:	00828284 	movi	r2,2570
 20402cc:	e0bff815 	stw	r2,-32(fp)
 20402d0:	e03ff915 	stw	zero,-28(fp)
 20402d4:	e03ffa15 	stw	zero,-24(fp)
 20402d8:	e03ffb15 	stw	zero,-20(fp)
 20402dc:	e03ffc15 	stw	zero,-16(fp)
 20402e0:	e03ffd15 	stw	zero,-12(fp)
 20402e4:	e03ffe15 	stw	zero,-8(fp)
 20402e8:	e03fff15 	stw	zero,-4(fp)
	if(!fp) return FALSE;
 20402ec:	d0a78f17 	ldw	r2,-25028(gp)
 20402f0:	1000021e 	bne	r2,zero,20402fc <LCD_Clear+0x44>
 20402f4:	0005883a 	mov	r2,zero
 20402f8:	00000a06 	br	2040324 <LCD_Clear+0x6c>
	fwrite(szText, strlen(szText), 1, fp);
 20402fc:	e13ff804 	addi	r4,fp,-32
 2040300:	20490080 	call	2049008 <strlen>
 2040304:	1007883a 	mov	r3,r2
 2040308:	d0a78f17 	ldw	r2,-25028(gp)
 204030c:	e13ff804 	addi	r4,fp,-32
 2040310:	180b883a 	mov	r5,r3
 2040314:	01800044 	movi	r6,1
 2040318:	100f883a 	mov	r7,r2
 204031c:	2047d440 	call	2047d44 <fwrite>
	return TRUE;
 2040320:	00800044 	movi	r2,1
}
 2040324:	e037883a 	mov	sp,fp
 2040328:	dfc00117 	ldw	ra,4(sp)
 204032c:	df000017 	ldw	fp,0(sp)
 2040330:	dec00204 	addi	sp,sp,8
 2040334:	f800283a 	ret

02040338 <LCD_Close>:
void LCD_Close(void){
 2040338:	defffe04 	addi	sp,sp,-8
 204033c:	dfc00115 	stw	ra,4(sp)
 2040340:	df000015 	stw	fp,0(sp)
 2040344:	d839883a 	mov	fp,sp
	if(fp) fclose(fp);
 2040348:	d0a78f17 	ldw	r2,-25028(gp)
 204034c:	10000326 	beq	r2,zero,204035c <LCD_Close+0x24>
 2040350:	d0a78f17 	ldw	r2,-25028(gp)
 2040354:	1009883a 	mov	r4,r2
 2040358:	2046b0c0 	call	2046b0c <fclose>
	fp = 0;
 204035c:	d0278f15 	stw	zero,-25028(gp)
}
 2040360:	e037883a 	mov	sp,fp
 2040364:	dfc00117 	ldw	ra,4(sp)
 2040368:	df000017 	ldw	fp,0(sp)
 204036c:	dec00204 	addi	sp,sp,8
 2040370:	f800283a 	ret

02040374 <Fat_Test>:

bool Fat_Test(FAT_HANDLE hFat){
 2040374:	defea604 	addi	sp,sp,-1384
 2040378:	dfc15915 	stw	ra,1380(sp)
 204037c:	df015815 	stw	fp,1376(sp)
 2040380:	df015804 	addi	fp,sp,1376
 2040384:	e13fff15 	stw	r4,-4(fp)
    IOWR_ALTERA_AVALON_PIO_DATA(TO_HW_SIG_BASE, 0x0);
 2040388:	0007883a 	mov	r3,zero
 204038c:	00805404 	movi	r2,336
 2040390:	10c00035 	stwio	r3,0(r2)
    bool bSuccess;
    int nCount = 0;
 2040394:	e03ea915 	stw	zero,-1372(fp)
    char* pDumpFile[256];
    FAT_BROWSE_HANDLE hBrowse;
    FILE_CONTEXT FileContext;
    
    bSuccess = Fat_FileBrowseBegin(hFat, &hBrowse);
 2040398:	e0bfb204 	addi	r2,fp,-312
 204039c:	e13fff17 	ldw	r4,-4(fp)
 20403a0:	100b883a 	mov	r5,r2
 20403a4:	20409940 	call	2040994 <Fat_FileBrowseBegin>
 20403a8:	e0bea815 	stw	r2,-1376(fp)
    if (bSuccess){
 20403ac:	e0bea817 	ldw	r2,-1376(fp)
 20403b0:	10004526 	beq	r2,zero,20404c8 <Fat_Test+0x154>
        while(Fat_FileBrowseNext(&hBrowse, &FileContext)){
 20403b4:	00003606 	br	2040490 <Fat_Test+0x11c>
            if (FileContext.bLongFilename){
 20403b8:	e0bff417 	ldw	r2,-48(fp)
 20403bc:	10002b26 	beq	r2,zero,204046c <Fat_Test+0xf8>
                alt_u16 *pData16;
                alt_u8 *pData8;
                pData16 = (alt_u16 *)FileContext.szName;
 20403c0:	e0bfb404 	addi	r2,fp,-304
 20403c4:	e0beaa15 	stw	r2,-1368(fp)
                pData8 = FileContext.szName;
 20403c8:	e0bfb404 	addi	r2,fp,-304
 20403cc:	e0beab15 	stw	r2,-1364(fp)
                printf("[%d]", nCount);
 20403d0:	010081b4 	movhi	r4,518
 20403d4:	21073404 	addi	r4,r4,7376
 20403d8:	e17ea917 	ldw	r5,-1372(fp)
 20403dc:	20489f00 	call	20489f0 <printf>
                while(*pData16){
 20403e0:	00001b06 	br	2040450 <Fat_Test+0xdc>
                    if (*pData8)
 20403e4:	e0beab17 	ldw	r2,-1364(fp)
 20403e8:	10800003 	ldbu	r2,0(r2)
 20403ec:	10803fcc 	andi	r2,r2,255
 20403f0:	10000526 	beq	r2,zero,2040408 <Fat_Test+0x94>
                        printf("%c", *pData8);
 20403f4:	e0beab17 	ldw	r2,-1364(fp)
 20403f8:	10800003 	ldbu	r2,0(r2)
 20403fc:	10803fcc 	andi	r2,r2,255
 2040400:	1009883a 	mov	r4,r2
 2040404:	2048a340 	call	2048a34 <putchar>
                    pData8++;
 2040408:	e0beab17 	ldw	r2,-1364(fp)
 204040c:	10800044 	addi	r2,r2,1
 2040410:	e0beab15 	stw	r2,-1364(fp)
                    if (*pData8)
 2040414:	e0beab17 	ldw	r2,-1364(fp)
 2040418:	10800003 	ldbu	r2,0(r2)
 204041c:	10803fcc 	andi	r2,r2,255
 2040420:	10000526 	beq	r2,zero,2040438 <Fat_Test+0xc4>
                        printf("%c", *pData8);
 2040424:	e0beab17 	ldw	r2,-1364(fp)
 2040428:	10800003 	ldbu	r2,0(r2)
 204042c:	10803fcc 	andi	r2,r2,255
 2040430:	1009883a 	mov	r4,r2
 2040434:	2048a340 	call	2048a34 <putchar>
                    pData8++;                    
 2040438:	e0beab17 	ldw	r2,-1364(fp)
 204043c:	10800044 	addi	r2,r2,1
 2040440:	e0beab15 	stw	r2,-1364(fp)
                    //    
                    pData16++;
 2040444:	e0beaa17 	ldw	r2,-1368(fp)
 2040448:	10800084 	addi	r2,r2,2
 204044c:	e0beaa15 	stw	r2,-1368(fp)
                alt_u16 *pData16;
                alt_u8 *pData8;
                pData16 = (alt_u16 *)FileContext.szName;
                pData8 = FileContext.szName;
                printf("[%d]", nCount);
                while(*pData16){
 2040450:	e0beaa17 	ldw	r2,-1368(fp)
 2040454:	1080000b 	ldhu	r2,0(r2)
 2040458:	10bfffcc 	andi	r2,r2,65535
 204045c:	103fe11e 	bne	r2,zero,20403e4 <__alt_data_end+0xfffc03e4>
                        printf("%c", *pData8);
                    pData8++;                    
                    //    
                    pData16++;
                }
                printf("\n");
 2040460:	01000284 	movi	r4,10
 2040464:	2048a340 	call	2048a34 <putchar>
 2040468:	00000606 	br	2040484 <Fat_Test+0x110>
            }else{
                printf("[%d]%s\n", nCount, FileContext.szName);
 204046c:	e0bfb404 	addi	r2,fp,-304
 2040470:	010081b4 	movhi	r4,518
 2040474:	21073604 	addi	r4,r4,7384
 2040478:	e17ea917 	ldw	r5,-1372(fp)
 204047c:	100d883a 	mov	r6,r2
 2040480:	20489f00 	call	20489f0 <printf>
            }                
            nCount++;
 2040484:	e0bea917 	ldw	r2,-1372(fp)
 2040488:	10800044 	addi	r2,r2,1
 204048c:	e0bea915 	stw	r2,-1372(fp)
    FAT_BROWSE_HANDLE hBrowse;
    FILE_CONTEXT FileContext;
    
    bSuccess = Fat_FileBrowseBegin(hFat, &hBrowse);
    if (bSuccess){
        while(Fat_FileBrowseNext(&hBrowse, &FileContext)){
 2040490:	e0ffb204 	addi	r3,fp,-312
 2040494:	e0bfb404 	addi	r2,fp,-304
 2040498:	1809883a 	mov	r4,r3
 204049c:	100b883a 	mov	r5,r2
 20404a0:	2040a000 	call	2040a00 <Fat_FileBrowseNext>
 20404a4:	103fc41e 	bne	r2,zero,20403b8 <__alt_data_end+0xfffc03b8>
            }else{
                printf("[%d]%s\n", nCount, FileContext.szName);
            }                
            nCount++;
        }    
        printf("Select file by Name: \n");
 20404a8:	010081b4 	movhi	r4,518
 20404ac:	21073804 	addi	r4,r4,7392
 20404b0:	2048b040 	call	2048b04 <puts>
        scanf("%s", pDumpFile);
 20404b4:	e0beb204 	addi	r2,fp,-1336
 20404b8:	010081b4 	movhi	r4,518
 20404bc:	21073e04 	addi	r4,r4,7416
 20404c0:	100b883a 	mov	r5,r2
 20404c4:	2048d300 	call	2048d30 <scanf>
    }


    if (bSuccess && pDumpFile && strlen(pDumpFile)){
 20404c8:	e0bea817 	ldw	r2,-1376(fp)
 20404cc:	10009f26 	beq	r2,zero,204074c <Fat_Test+0x3d8>
 20404d0:	e0beb204 	addi	r2,fp,-1336
 20404d4:	10800003 	ldbu	r2,0(r2)
 20404d8:	10803fcc 	andi	r2,r2,255
 20404dc:	1080201c 	xori	r2,r2,128
 20404e0:	10bfe004 	addi	r2,r2,-128
 20404e4:	10009926 	beq	r2,zero,204074c <Fat_Test+0x3d8>
        FAT_FILE_HANDLE hFile;
        alt_u32 transfer_16bit = 0;
 20404e8:	e03eac15 	stw	zero,-1360(fp)
        hFile =  Fat_FileOpen(hFat, pDumpFile);
 20404ec:	e0beb204 	addi	r2,fp,-1336
 20404f0:	e13fff17 	ldw	r4,-4(fp)
 20404f4:	100b883a 	mov	r5,r2
 20404f8:	204118c0 	call	204118c <Fat_FileOpen>
 20404fc:	e0beb015 	stw	r2,-1344(fp)
        if (hFile){
 2040500:	e0beb017 	ldw	r2,-1344(fp)
 2040504:	10008b26 	beq	r2,zero,2040734 <Fat_Test+0x3c0>
            char szRead[2];
            int nReadSize, nFileSize, nTotalReadSize=0;
 2040508:	e03eae15 	stw	zero,-1352(fp)
            nFileSize = Fat_FileSize(hFile);
 204050c:	e13eb017 	ldw	r4,-1344(fp)
 2040510:	20412b40 	call	20412b4 <Fat_FileSize>
 2040514:	e0beb115 	stw	r2,-1340(fp)
            if (nReadSize > sizeof(szRead))
 2040518:	e0bead17 	ldw	r2,-1356(fp)
 204051c:	108000f0 	cmpltui	r2,r2,3
 2040520:	1000021e 	bne	r2,zero,204052c <Fat_Test+0x1b8>
                nReadSize = sizeof(szRead);
 2040524:	00800084 	movi	r2,2
 2040528:	e0bead15 	stw	r2,-1356(fp)
            printf("%s dump:\n", pDumpFile);
 204052c:	e0beb204 	addi	r2,fp,-1336
 2040530:	010081b4 	movhi	r4,518
 2040534:	21073f04 	addi	r4,r4,7420
 2040538:	100b883a 	mov	r5,r2
 204053c:	20489f00 	call	20489f0 <printf>

            //Prepare io_module for data transfer
            IOWR_ALTERA_AVALON_PIO_DATA(TO_HW_SIG_BASE, 0x1);
 2040540:	00c00044 	movi	r3,1
 2040544:	00805404 	movi	r2,336
 2040548:	10c00035 	stwio	r3,0(r2)
            while(IORD_ALTERA_AVALON_PIO_DATA(TO_SW_SIG_BASE) != 1);	//Wait for first prepare
 204054c:	0001883a 	nop
 2040550:	00805804 	movi	r2,352
 2040554:	10800037 	ldwio	r2,0(r2)
 2040558:	10800058 	cmpnei	r2,r2,1
 204055c:	103ffc1e 	bne	r2,zero,2040550 <__alt_data_end+0xfffc0550>

            while(bSuccess && nTotalReadSize < nFileSize){
 2040560:	00005c06 	br	20406d4 <Fat_Test+0x360>

                nReadSize = sizeof(szRead);
 2040564:	00800084 	movi	r2,2
 2040568:	e0bead15 	stw	r2,-1356(fp)
                transfer_16bit = 0;
 204056c:	e03eac15 	stw	zero,-1360(fp)

                //Never read more than what is left in the file
                if (nReadSize > (nFileSize - nTotalReadSize)) nReadSize = (nFileSize - nTotalReadSize);
 2040570:	e0feb117 	ldw	r3,-1340(fp)
 2040574:	e0beae17 	ldw	r2,-1352(fp)
 2040578:	1887c83a 	sub	r3,r3,r2
 204057c:	e0bead17 	ldw	r2,-1356(fp)
 2040580:	1880040e 	bge	r3,r2,2040594 <Fat_Test+0x220>
 2040584:	e0feb117 	ldw	r3,-1340(fp)
 2040588:	e0beae17 	ldw	r2,-1352(fp)
 204058c:	1885c83a 	sub	r2,r3,r2
 2040590:	e0bead15 	stw	r2,-1356(fp)

                if (Fat_FileRead(hFile, szRead, nReadSize)){
 2040594:	e0bffe04 	addi	r2,fp,-8
 2040598:	e13eb017 	ldw	r4,-1344(fp)
 204059c:	100b883a 	mov	r5,r2
 20405a0:	e1bead17 	ldw	r6,-1356(fp)
 20405a4:	20412f80 	call	20412f8 <Fat_FileRead>
 20405a8:	10002826 	beq	r2,zero,204064c <Fat_Test+0x2d8>
                    int i;
                    for(i=0;i<nReadSize;i++){
 20405ac:	e03eaf15 	stw	zero,-1348(fp)
 20405b0:	00001806 	br	2040614 <Fat_Test+0x2a0>
                        printf("%02x", (alt_u8)szRead[i]);
 20405b4:	e0fffe04 	addi	r3,fp,-8
 20405b8:	e0beaf17 	ldw	r2,-1348(fp)
 20405bc:	1885883a 	add	r2,r3,r2
 20405c0:	10800003 	ldbu	r2,0(r2)
 20405c4:	10803fcc 	andi	r2,r2,255
 20405c8:	010081b4 	movhi	r4,518
 20405cc:	21074204 	addi	r4,r4,7432
 20405d0:	100b883a 	mov	r5,r2
 20405d4:	20489f00 	call	20489f0 <printf>
                        transfer_16bit |= (alt_u8)szRead[i] << i*8;
 20405d8:	e0fffe04 	addi	r3,fp,-8
 20405dc:	e0beaf17 	ldw	r2,-1348(fp)
 20405e0:	1885883a 	add	r2,r3,r2
 20405e4:	10800003 	ldbu	r2,0(r2)
 20405e8:	10c03fcc 	andi	r3,r2,255
 20405ec:	e0beaf17 	ldw	r2,-1348(fp)
 20405f0:	100490fa 	slli	r2,r2,3
 20405f4:	1884983a 	sll	r2,r3,r2
 20405f8:	1007883a 	mov	r3,r2
 20405fc:	e0beac17 	ldw	r2,-1360(fp)
 2040600:	10c4b03a 	or	r2,r2,r3
 2040604:	e0beac15 	stw	r2,-1360(fp)
                //Never read more than what is left in the file
                if (nReadSize > (nFileSize - nTotalReadSize)) nReadSize = (nFileSize - nTotalReadSize);

                if (Fat_FileRead(hFile, szRead, nReadSize)){
                    int i;
                    for(i=0;i<nReadSize;i++){
 2040608:	e0beaf17 	ldw	r2,-1348(fp)
 204060c:	10800044 	addi	r2,r2,1
 2040610:	e0beaf15 	stw	r2,-1348(fp)
 2040614:	e0feaf17 	ldw	r3,-1348(fp)
 2040618:	e0bead17 	ldw	r2,-1356(fp)
 204061c:	18bfe516 	blt	r3,r2,20405b4 <__alt_data_end+0xfffc05b4>
                        printf("%02x", (alt_u8)szRead[i]);
                        transfer_16bit |= (alt_u8)szRead[i] << i*8;
                    }
                    printf("\n");
 2040620:	01000284 	movi	r4,10
 2040624:	2048a340 	call	2048a34 <putchar>
                    printf("instruction: %04x\n", transfer_16bit);
 2040628:	010081b4 	movhi	r4,518
 204062c:	21074404 	addi	r4,r4,7440
 2040630:	e17eac17 	ldw	r5,-1360(fp)
 2040634:	20489f00 	call	20489f0 <printf>
                    nTotalReadSize += nReadSize;
 2040638:	e0feae17 	ldw	r3,-1352(fp)
 204063c:	e0bead17 	ldw	r2,-1356(fp)
 2040640:	1885883a 	add	r2,r3,r2
 2040644:	e0beae15 	stw	r2,-1352(fp)
 2040648:	00000606 	br	2040664 <Fat_Test+0x2f0>
                }else{
                    bSuccess = FALSE;
 204064c:	e03ea815 	stw	zero,-1376(fp)
                    printf("\nFaied to read the file \"%s\"\n", pDumpFile);
 2040650:	e0beb204 	addi	r2,fp,-1336
 2040654:	010081b4 	movhi	r4,518
 2040658:	21074904 	addi	r4,r4,7460
 204065c:	100b883a 	mov	r5,r2
 2040660:	20489f00 	call	20489f0 <printf>
                }     

                //Transfer 16 bits

                printf("Begin Transfer...\n");
 2040664:	010081b4 	movhi	r4,518
 2040668:	21075104 	addi	r4,r4,7492
 204066c:	2048b040 	call	2048b04 <puts>
               	IOWR_ALTERA_AVALON_PIO_DATA(TO_HW_PORT_BASE, transfer_16bit);
 2040670:	e0feac17 	ldw	r3,-1360(fp)
 2040674:	00805004 	movi	r2,320
 2040678:	10c00035 	stwio	r3,0(r2)

               	printf("Send 0...\n");
 204067c:	010081b4 	movhi	r4,518
 2040680:	21075604 	addi	r4,r4,7512
 2040684:	2048b040 	call	2048b04 <puts>
               	IOWR_ALTERA_AVALON_PIO_DATA(TO_HW_SIG_BASE, 0x0);
 2040688:	0007883a 	mov	r3,zero
 204068c:	00805404 	movi	r2,336
 2040690:	10c00035 	stwio	r3,0(r2)
               	while(IORD_ALTERA_AVALON_PIO_DATA(TO_SW_SIG_BASE) != 2);	//Wait for set_mem
 2040694:	0001883a 	nop
 2040698:	00805804 	movi	r2,352
 204069c:	10800037 	ldwio	r2,0(r2)
 20406a0:	10800098 	cmpnei	r2,r2,2
 20406a4:	103ffc1e 	bne	r2,zero,2040698 <__alt_data_end+0xfffc0698>

               	printf("Send 1...\n");
 20406a8:	010081b4 	movhi	r4,518
 20406ac:	21075904 	addi	r4,r4,7524
 20406b0:	2048b040 	call	2048b04 <puts>
               	IOWR_ALTERA_AVALON_PIO_DATA(TO_HW_SIG_BASE, 0x1);
 20406b4:	00c00044 	movi	r3,1
 20406b8:	00805404 	movi	r2,336
 20406bc:	10c00035 	stwio	r3,0(r2)
                while(IORD_ALTERA_AVALON_PIO_DATA(TO_SW_SIG_BASE) != 1);	//Wait for prepare
 20406c0:	0001883a 	nop
 20406c4:	00805804 	movi	r2,352
 20406c8:	10800037 	ldwio	r2,0(r2)
 20406cc:	10800058 	cmpnei	r2,r2,1
 20406d0:	103ffc1e 	bne	r2,zero,20406c4 <__alt_data_end+0xfffc06c4>

            //Prepare io_module for data transfer
            IOWR_ALTERA_AVALON_PIO_DATA(TO_HW_SIG_BASE, 0x1);
            while(IORD_ALTERA_AVALON_PIO_DATA(TO_SW_SIG_BASE) != 1);	//Wait for first prepare

            while(bSuccess && nTotalReadSize < nFileSize){
 20406d4:	e0bea817 	ldw	r2,-1376(fp)
 20406d8:	10000326 	beq	r2,zero,20406e8 <Fat_Test+0x374>
 20406dc:	e0feae17 	ldw	r3,-1352(fp)
 20406e0:	e0beb117 	ldw	r2,-1340(fp)
 20406e4:	18bf9f16 	blt	r3,r2,2040564 <__alt_data_end+0xfffc0564>
               	IOWR_ALTERA_AVALON_PIO_DATA(TO_HW_SIG_BASE, 0x1);
                while(IORD_ALTERA_AVALON_PIO_DATA(TO_SW_SIG_BASE) != 1);	//Wait for prepare

            } // while

            printf("Done reading %s to memory.\n", pDumpFile);
 20406e8:	e0beb204 	addi	r2,fp,-1336
 20406ec:	010081b4 	movhi	r4,518
 20406f0:	21075c04 	addi	r4,r4,7536
 20406f4:	100b883a 	mov	r5,r2
 20406f8:	20489f00 	call	20489f0 <printf>
           	IOWR_ALTERA_AVALON_PIO_DATA(TO_HW_SIG_BASE, 0x2);
 20406fc:	00c00084 	movi	r3,2
 2040700:	00805404 	movi	r2,336
 2040704:	10c00035 	stwio	r3,0(r2)
           	while(IORD_ALTERA_AVALON_PIO_DATA(TO_SW_SIG_BASE) != 0);	 //Wait to return to Wait
 2040708:	0001883a 	nop
 204070c:	00805804 	movi	r2,352
 2040710:	10800037 	ldwio	r2,0(r2)
 2040714:	103ffd1e 	bne	r2,zero,204070c <__alt_data_end+0xfffc070c>


            if (bSuccess)
 2040718:	e0bea817 	ldw	r2,-1376(fp)
 204071c:	10000226 	beq	r2,zero,2040728 <Fat_Test+0x3b4>
                printf("\n");
 2040720:	01000284 	movi	r4,10
 2040724:	2048a340 	call	2048a34 <putchar>
            Fat_FileClose(hFile);
 2040728:	e13eb017 	ldw	r4,-1344(fp)
 204072c:	20418680 	call	2041868 <Fat_FileClose>
 2040730:	00000606 	br	204074c <Fat_Test+0x3d8>
        }else{            
            bSuccess = FALSE;
 2040734:	e03ea815 	stw	zero,-1376(fp)
            printf("Cannot find the file \"%s\"\n", pDumpFile);
 2040738:	e0beb204 	addi	r2,fp,-1336
 204073c:	010081b4 	movhi	r4,518
 2040740:	21076304 	addi	r4,r4,7564
 2040744:	100b883a 	mov	r5,r2
 2040748:	20489f00 	call	20489f0 <printf>
        }            
    }
    
    return bSuccess;
 204074c:	e0bea817 	ldw	r2,-1376(fp)
}
 2040750:	e037883a 	mov	sp,fp
 2040754:	dfc00117 	ldw	ra,4(sp)
 2040758:	df000017 	ldw	fp,0(sp)
 204075c:	dec00204 	addi	sp,sp,8
 2040760:	f800283a 	ret

02040764 <main>:


int main()
{
 2040764:	defff604 	addi	sp,sp,-40
 2040768:	dfc00915 	stw	ra,36(sp)
 204076c:	df000815 	stw	fp,32(sp)
 2040770:	df000804 	addi	fp,sp,32
    const alt_u32 LED_TEST_PATTERN = 0xF0;
 2040774:	00803c04 	movi	r2,240
 2040778:	e0bff815 	stw	r2,-32(fp)
    const alt_u32 LED_NG_PATTERN = 0xFF;
 204077c:	00803fc4 	movi	r2,255
 2040780:	e0bff915 	stw	r2,-28(fp)
    const alt_u32 LED_PASS_PATTERN = 0x00;
 2040784:	e03ffa15 	stw	zero,-24(fp)
    const char temp[] = "Test String\0";
 2040788:	008081b4 	movhi	r2,518
 204078c:	1087b004 	addi	r2,r2,7872
 2040790:	10c00017 	ldw	r3,0(r2)
 2040794:	e0fffc15 	stw	r3,-16(fp)
 2040798:	10c00117 	ldw	r3,4(r2)
 204079c:	e0fffd15 	stw	r3,-12(fp)
 20407a0:	10c00217 	ldw	r3,8(r2)
 20407a4:	e0fffe15 	stw	r3,-8(fp)
 20407a8:	10800303 	ldbu	r2,12(r2)
 20407ac:	e0bfff05 	stb	r2,-4(fp)
    FAT_HANDLE hFat;

    LCD_Open();
 20407b0:	20402080 	call	2040208 <LCD_Open>
    LCD_TextOut(">This is a test.");
 20407b4:	010081b4 	movhi	r4,518
 20407b8:	21076a04 	addi	r4,r4,7592
 20407bc:	20402580 	call	2040258 <LCD_TextOut>
    LCD_Close();
 20407c0:	20403380 	call	2040338 <LCD_Close>

    printf("========== DE2-115 SDCARD Demo ==========\n");
 20407c4:	010081b4 	movhi	r4,518
 20407c8:	21076f04 	addi	r4,r4,7612
 20407cc:	2048b040 	call	2048b04 <puts>
    
    while(1){
        printf("Processing...\r\n");
 20407d0:	010081b4 	movhi	r4,518
 20407d4:	21077a04 	addi	r4,r4,7656
 20407d8:	2048b040 	call	2048b04 <puts>
        IOWR_ALTERA_AVALON_PIO_DATA(LEDR_BASE, LED_TEST_PATTERN);
 20407dc:	e0fff817 	ldw	r3,-32(fp)
 20407e0:	00804804 	movi	r2,288
 20407e4:	10c00035 	stwio	r3,0(r2)
        hFat = Fat_Mount(FAT_SD_CARD, 0);
 20407e8:	0009883a 	mov	r4,zero
 20407ec:	000b883a 	mov	r5,zero
 20407f0:	20408980 	call	2040898 <Fat_Mount>
 20407f4:	e0bffb15 	stw	r2,-20(fp)
        if (hFat){
 20407f8:	e0bffb17 	ldw	r2,-20(fp)
 20407fc:	10001426 	beq	r2,zero,2040850 <main+0xec>
            printf("sdcard mount success!\n");
 2040800:	010081b4 	movhi	r4,518
 2040804:	21077e04 	addi	r4,r4,7672
 2040808:	2048b040 	call	2048b04 <puts>
            printf("Root Directory Item Count:%d\n", Fat_FileCount(hFat));
 204080c:	e13ffb17 	ldw	r4,-20(fp)
 2040810:	2040e2c0 	call	2040e2c <Fat_FileCount>
 2040814:	010081b4 	movhi	r4,518
 2040818:	21078404 	addi	r4,r4,7696
 204081c:	100b883a 	mov	r5,r2
 2040820:	20489f00 	call	20489f0 <printf>
            Fat_Test(hFat);
 2040824:	e13ffb17 	ldw	r4,-20(fp)
 2040828:	20403740 	call	2040374 <Fat_Test>
            Fat_Unmount(hFat);
 204082c:	e13ffb17 	ldw	r4,-20(fp)
 2040830:	20408dc0 	call	20408dc <Fat_Unmount>
            IOWR_ALTERA_AVALON_PIO_DATA(LEDR_BASE, LED_PASS_PATTERN);
 2040834:	e0fffa17 	ldw	r3,-24(fp)
 2040838:	00804804 	movi	r2,288
 204083c:	10c00035 	stwio	r3,0(r2)
            
            printf("===== Test Done =====\r\nPress KEY3 to test again.\r\n");
 2040840:	010081b4 	movhi	r4,518
 2040844:	21078c04 	addi	r4,r4,7728
 2040848:	2048b040 	call	2048b04 <puts>
 204084c:	00000606 	br	2040868 <main+0x104>
        }else{
            printf("Failed to mount the SDCARD!\r\nPlease insert the SDCARD into DE2-115 board and press KEY3.\r\n");
 2040850:	010081b4 	movhi	r4,518
 2040854:	21079904 	addi	r4,r4,7780
 2040858:	2048b040 	call	2048b04 <puts>
            IOWR_ALTERA_AVALON_PIO_DATA(LEDR_BASE, LED_NG_PATTERN);
 204085c:	e0fff917 	ldw	r3,-28(fp)
 2040860:	00804804 	movi	r2,288
 2040864:	10c00035 	stwio	r3,0(r2)
        }
        // wait users to press BUTTON3
        while ((IORD_ALTERA_AVALON_PIO_DATA(KEY_BASE) & 0x08) == 0x08);
 2040868:	0001883a 	nop
 204086c:	00801804 	movi	r2,96
 2040870:	10800037 	ldwio	r2,0(r2)
 2040874:	1080020c 	andi	r2,r2,8
 2040878:	103ffc1e 	bne	r2,zero,204086c <__alt_data_end+0xfffc086c>
        IOWR_ALTERA_AVALON_PIO_DATA(LEDR_BASE, LED_TEST_PATTERN);
 204087c:	e0fff817 	ldw	r3,-32(fp)
 2040880:	00804804 	movi	r2,288
 2040884:	10c00035 	stwio	r3,0(r2)
        usleep(400*1000); // debounce
 2040888:	010001b4 	movhi	r4,6
 204088c:	2106a004 	addi	r4,r4,6784
 2040890:	205c1100 	call	205c110 <usleep>
    } // while            
 2040894:	003fce06 	br	20407d0 <__alt_data_end+0xfffc07d0>

02040898 <Fat_Mount>:
bool fatSameLongFilename(alt_u16 *p1, alt_u16 *p2);




FAT_HANDLE Fat_Mount(FAT_DEVICE FatDevice, DEVICE_HANDLE hUsbDisk){
 2040898:	defffb04 	addi	sp,sp,-20
 204089c:	dfc00415 	stw	ra,16(sp)
 20408a0:	df000315 	stw	fp,12(sp)
 20408a4:	df000304 	addi	fp,sp,12
 20408a8:	e13ffe15 	stw	r4,-8(fp)
 20408ac:	e17fff15 	stw	r5,-4(fp)
    
    //Fat_Unmount();
    FAT_HANDLE hFat = 0;
 20408b0:	e03ffd15 	stw	zero,-12(fp)
    
    if (FatDevice == FAT_SD_CARD){
 20408b4:	e0bffe17 	ldw	r2,-8(fp)
 20408b8:	1000021e 	bne	r2,zero,20408c4 <Fat_Mount+0x2c>
        #ifdef SUPPORT_SD_CARD
        hFat = fatMountSdcard();
 20408bc:	2042ab80 	call	2042ab8 <fatMountSdcard>
 20408c0:	e0bffd15 	stw	r2,-12(fp)
    }else if (FatDevice == FAT_USB_DISK){
        #ifdef SUPPORT_USB_DISK
        hFat = fatMountUsbDisk(hUsbDisk);
        #endif
    }  
    return hFat;      
 20408c4:	e0bffd17 	ldw	r2,-12(fp)
        
}
 20408c8:	e037883a 	mov	sp,fp
 20408cc:	dfc00117 	ldw	ra,4(sp)
 20408d0:	df000017 	ldw	fp,0(sp)
 20408d4:	dec00204 	addi	sp,sp,8
 20408d8:	f800283a 	ret

020408dc <Fat_Unmount>:

void Fat_Unmount(FAT_HANDLE Fat){
 20408dc:	defffc04 	addi	sp,sp,-16
 20408e0:	dfc00315 	stw	ra,12(sp)
 20408e4:	df000215 	stw	fp,8(sp)
 20408e8:	df000204 	addi	fp,sp,8
 20408ec:	e13fff15 	stw	r4,-4(fp)
    VOLUME_INFO *pVol = (VOLUME_INFO *)Fat;
 20408f0:	e0bfff17 	ldw	r2,-4(fp)
 20408f4:	e0bffe15 	stw	r2,-8(fp)
    if (!pVol)
 20408f8:	e0bffe17 	ldw	r2,-8(fp)
 20408fc:	1000011e 	bne	r2,zero,2040904 <Fat_Unmount+0x28>
        return;
 2040900:	00000406 	br	2040914 <Fat_Unmount+0x38>
    if (pVol->szFatTable){
        free(pVol->szFatTable);
        pVol->szFatTable = 0;
    }        
#endif //#ifdef FAT_READONLY
    pVol->bMount = FALSE;
 2040904:	e0bffe17 	ldw	r2,-8(fp)
 2040908:	10000415 	stw	zero,16(r2)
    
    free(pVol);  
 204090c:	e13ffe17 	ldw	r4,-8(fp)
 2040910:	2047f500 	call	2047f50 <free>
}   
 2040914:	e037883a 	mov	sp,fp
 2040918:	dfc00117 	ldw	ra,4(sp)
 204091c:	df000017 	ldw	fp,0(sp)
 2040920:	dec00204 	addi	sp,sp,8
 2040924:	f800283a 	ret

02040928 <Fat_Type>:

FAT_TYPE Fat_Type(FAT_HANDLE Fat){
 2040928:	defffc04 	addi	sp,sp,-16
 204092c:	df000315 	stw	fp,12(sp)
 2040930:	df000304 	addi	fp,sp,12
 2040934:	e13fff15 	stw	r4,-4(fp)
    VOLUME_INFO *pVol = (VOLUME_INFO *)Fat;
 2040938:	e0bfff17 	ldw	r2,-4(fp)
 204093c:	e0bffe15 	stw	r2,-8(fp)
    FAT_TYPE Type = FAT_UNKNOWN;
 2040940:	e03ffd15 	stw	zero,-12(fp)
    if (pVol){
 2040944:	e0bffe17 	ldw	r2,-8(fp)
 2040948:	10000d26 	beq	r2,zero,2040980 <Fat_Type+0x58>
        if (pVol->Partition_Type == PARTITION_FAT16)
 204094c:	e0bffe17 	ldw	r2,-8(fp)
 2040950:	10800317 	ldw	r2,12(r2)
 2040954:	10800198 	cmpnei	r2,r2,6
 2040958:	1000031e 	bne	r2,zero,2040968 <Fat_Type+0x40>
            Type = FAT_FAT16;
 204095c:	00800044 	movi	r2,1
 2040960:	e0bffd15 	stw	r2,-12(fp)
 2040964:	00000606 	br	2040980 <Fat_Type+0x58>
        else if (pVol->Partition_Type == PARTITION_FAT32)
 2040968:	e0bffe17 	ldw	r2,-8(fp)
 204096c:	10800317 	ldw	r2,12(r2)
 2040970:	108002d8 	cmpnei	r2,r2,11
 2040974:	1000021e 	bne	r2,zero,2040980 <Fat_Type+0x58>
            Type = FAT_FAT32;
 2040978:	00800084 	movi	r2,2
 204097c:	e0bffd15 	stw	r2,-12(fp)
    }
    return Type;        
 2040980:	e0bffd17 	ldw	r2,-12(fp)
}
 2040984:	e037883a 	mov	sp,fp
 2040988:	df000017 	ldw	fp,0(sp)
 204098c:	dec00104 	addi	sp,sp,4
 2040990:	f800283a 	ret

02040994 <Fat_FileBrowseBegin>:

bool Fat_FileBrowseBegin(FAT_HANDLE hFat, FAT_BROWSE_HANDLE *pFatBrowseHandle){
 2040994:	defffc04 	addi	sp,sp,-16
 2040998:	df000315 	stw	fp,12(sp)
 204099c:	df000304 	addi	fp,sp,12
 20409a0:	e13ffe15 	stw	r4,-8(fp)
 20409a4:	e17fff15 	stw	r5,-4(fp)
    VOLUME_INFO *pVol = (VOLUME_INFO *)hFat;
 20409a8:	e0bffe17 	ldw	r2,-8(fp)
 20409ac:	e0bffd15 	stw	r2,-12(fp)
    if (!pVol)
 20409b0:	e0bffd17 	ldw	r2,-12(fp)
 20409b4:	1000021e 	bne	r2,zero,20409c0 <Fat_FileBrowseBegin+0x2c>
        return FALSE;
 20409b8:	0005883a 	mov	r2,zero
 20409bc:	00000c06 	br	20409f0 <Fat_FileBrowseBegin+0x5c>
    if (!pVol->bMount)
 20409c0:	e0bffd17 	ldw	r2,-12(fp)
 20409c4:	10800417 	ldw	r2,16(r2)
 20409c8:	1000021e 	bne	r2,zero,20409d4 <Fat_FileBrowseBegin+0x40>
        return FALSE;
 20409cc:	0005883a 	mov	r2,zero
 20409d0:	00000706 	br	20409f0 <Fat_FileBrowseBegin+0x5c>
    pFatBrowseHandle->DirectoryIndex = -1;
 20409d4:	e0bfff17 	ldw	r2,-4(fp)
 20409d8:	00ffffc4 	movi	r3,-1
 20409dc:	10c00015 	stw	r3,0(r2)
    pFatBrowseHandle->hFat = hFat;
 20409e0:	e0bfff17 	ldw	r2,-4(fp)
 20409e4:	e0fffe17 	ldw	r3,-8(fp)
 20409e8:	10c00115 	stw	r3,4(r2)
    return TRUE;
 20409ec:	00800044 	movi	r2,1
}
 20409f0:	e037883a 	mov	sp,fp
 20409f4:	df000017 	ldw	fp,0(sp)
 20409f8:	dec00104 	addi	sp,sp,4
 20409fc:	f800283a 	ret

02040a00 <Fat_FileBrowseNext>:

bool Fat_FileBrowseNext(FAT_BROWSE_HANDLE *pFatBrowseHandle, FILE_CONTEXT *pFileContext){
 2040a00:	defff404 	addi	sp,sp,-48
 2040a04:	dfc00b15 	stw	ra,44(sp)
 2040a08:	df000a15 	stw	fp,40(sp)
 2040a0c:	df000a04 	addi	fp,sp,40
 2040a10:	e13ffe15 	stw	r4,-8(fp)
 2040a14:	e17fff15 	stw	r5,-4(fp)
    bool bFind = FALSE, bError=FALSE, bLongFilename = FALSE;
 2040a18:	e03ff615 	stw	zero,-40(fp)
 2040a1c:	e03ff715 	stw	zero,-36(fp)
 2040a20:	e03ff815 	stw	zero,-32(fp)
    int OrderValue = 0;
 2040a24:	e03ff915 	stw	zero,-28(fp)
    FAT_DIRECTORY *pDir;
    //unsigned int nSecter, nSecterOffset,nByteOffset;
    VOLUME_INFO *pVol = (VOLUME_INFO *)pFatBrowseHandle->hFat;
 2040a28:	e0bffe17 	ldw	r2,-8(fp)
 2040a2c:	10800117 	ldw	r2,4(r2)
 2040a30:	e0bffa15 	stw	r2,-24(fp)
    
    if (!pVol)
 2040a34:	e0bffa17 	ldw	r2,-24(fp)
 2040a38:	1000021e 	bne	r2,zero,2040a44 <Fat_FileBrowseNext+0x44>
        return FALSE;    
 2040a3c:	0005883a 	mov	r2,zero
 2040a40:	0000f506 	br	2040e18 <Fat_FileBrowseNext+0x418>
    
    if (!pVol->bMount)
 2040a44:	e0bffa17 	ldw	r2,-24(fp)
 2040a48:	10800417 	ldw	r2,16(r2)
 2040a4c:	1000021e 	bne	r2,zero,2040a58 <Fat_FileBrowseNext+0x58>
        return FALSE;
 2040a50:	0005883a 	mov	r2,zero
 2040a54:	0000f006 	br	2040e18 <Fat_FileBrowseNext+0x418>
    
    
    do{  // search Directory Table
        pFatBrowseHandle->DirectoryIndex++;        
 2040a58:	e0bffe17 	ldw	r2,-8(fp)
 2040a5c:	10800017 	ldw	r2,0(r2)
 2040a60:	10c00044 	addi	r3,r2,1
 2040a64:	e0bffe17 	ldw	r2,-8(fp)
 2040a68:	10c00015 	stw	r3,0(r2)
        pDir = fatFindDirectory(pVol,pFatBrowseHandle->DirectoryIndex);
 2040a6c:	e0bffe17 	ldw	r2,-8(fp)
 2040a70:	10800017 	ldw	r2,0(r2)
 2040a74:	e13ffa17 	ldw	r4,-24(fp)
 2040a78:	100b883a 	mov	r5,r2
 2040a7c:	204257c0 	call	204257c <fatFindDirectory>
 2040a80:	e0bffb15 	stw	r2,-20(fp)
        if (!pDir)
 2040a84:	e0bffb17 	ldw	r2,-20(fp)
 2040a88:	1000021e 	bne	r2,zero,2040a94 <Fat_FileBrowseNext+0x94>
            bError = TRUE;
 2040a8c:	00800044 	movi	r2,1
 2040a90:	e0bff715 	stw	r2,-36(fp)
            
        if (!bError){                        
 2040a94:	e0bff717 	ldw	r2,-36(fp)
 2040a98:	1000d71e 	bne	r2,zero,2040df8 <Fat_FileBrowseNext+0x3f8>
            if (fatIsValidDir(pDir) && !fatIsUnusedDir(pDir)){
 2040a9c:	e13ffb17 	ldw	r4,-20(fp)
 2040aa0:	20421dc0 	call	20421dc <fatIsValidDir>
 2040aa4:	1000d426 	beq	r2,zero,2040df8 <Fat_FileBrowseNext+0x3f8>
 2040aa8:	e13ffb17 	ldw	r4,-20(fp)
 2040aac:	20422840 	call	2042284 <fatIsUnusedDir>
 2040ab0:	1000d11e 	bne	r2,zero,2040df8 <Fat_FileBrowseNext+0x3f8>
                if ((pDir->Attribute & ATTR_LONG_NAME) == ATTR_LONG_NAME){
 2040ab4:	e0bffb17 	ldw	r2,-20(fp)
 2040ab8:	108002c3 	ldbu	r2,11(r2)
 2040abc:	10803fcc 	andi	r2,r2,255
 2040ac0:	108003cc 	andi	r2,r2,15
 2040ac4:	108003d8 	cmpnei	r2,r2,15
 2040ac8:	1000521e 	bne	r2,zero,2040c14 <Fat_FileBrowseNext+0x214>
                    FAT_LONG_DIRECTORY *pLDIR = (FAT_LONG_DIRECTORY *)pDir;
 2040acc:	e0bffb17 	ldw	r2,-20(fp)
 2040ad0:	e0bffc15 	stw	r2,-16(fp)
                    // check attribute
                    if ((pLDIR->LDIR_Attr & ATTR_LONG_NAME) != ATTR_LONG_NAME){
 2040ad4:	e0bffc17 	ldw	r2,-16(fp)
 2040ad8:	108002c3 	ldbu	r2,11(r2)
 2040adc:	10803fcc 	andi	r2,r2,255
 2040ae0:	108003cc 	andi	r2,r2,15
 2040ae4:	108003e0 	cmpeqi	r2,r2,15
 2040ae8:	1000031e 	bne	r2,zero,2040af8 <Fat_FileBrowseNext+0xf8>
                        bError = TRUE;
 2040aec:	00800044 	movi	r2,1
 2040af0:	e0bff715 	stw	r2,-36(fp)
 2040af4:	00001e06 	br	2040b70 <Fat_FileBrowseNext+0x170>
                    }else{                        
                        // check order
                        if (OrderValue == 0){
 2040af8:	e0bff917 	ldw	r2,-28(fp)
 2040afc:	1000141e 	bne	r2,zero,2040b50 <Fat_FileBrowseNext+0x150>
                            // last entry
                            if (bLongFilename || ((OrderValue & LAST_LONG_ENTRY) != OrderValue))
 2040b00:	e0bff817 	ldw	r2,-32(fp)
 2040b04:	1000041e 	bne	r2,zero,2040b18 <Fat_FileBrowseNext+0x118>
 2040b08:	e0bff917 	ldw	r2,-28(fp)
 2040b0c:	10c0100c 	andi	r3,r2,64
 2040b10:	e0bff917 	ldw	r2,-28(fp)
 2040b14:	18800326 	beq	r3,r2,2040b24 <Fat_FileBrowseNext+0x124>
                                bError = TRUE;
 2040b18:	00800044 	movi	r2,1
 2040b1c:	e0bff715 	stw	r2,-36(fp)
 2040b20:	00000506 	br	2040b38 <Fat_FileBrowseNext+0x138>
                            else
                                OrderValue = pLDIR->LDIR_Ord & 0x3F;
 2040b24:	e0bffc17 	ldw	r2,-16(fp)
 2040b28:	10800003 	ldbu	r2,0(r2)
 2040b2c:	10803fcc 	andi	r2,r2,255
 2040b30:	10800fcc 	andi	r2,r2,63
 2040b34:	e0bff915 	stw	r2,-28(fp)
                            memset(pFileContext->szName, 0, sizeof(pFileContext->szName));        
 2040b38:	e0bfff17 	ldw	r2,-4(fp)
 2040b3c:	1009883a 	mov	r4,r2
 2040b40:	000b883a 	mov	r5,zero
 2040b44:	01804004 	movi	r6,256
 2040b48:	20488440 	call	2048844 <memset>
 2040b4c:	00000806 	br	2040b70 <Fat_FileBrowseNext+0x170>
                        }else{
                            if ((pLDIR->LDIR_Ord & 0x3F) != OrderValue)
 2040b50:	e0bffc17 	ldw	r2,-16(fp)
 2040b54:	10800003 	ldbu	r2,0(r2)
 2040b58:	10803fcc 	andi	r2,r2,255
 2040b5c:	10c00fcc 	andi	r3,r2,63
 2040b60:	e0bff917 	ldw	r2,-28(fp)
 2040b64:	18800226 	beq	r3,r2,2040b70 <Fat_FileBrowseNext+0x170>
                                bError = TRUE;
 2040b68:	00800044 	movi	r2,1
 2040b6c:	e0bff715 	stw	r2,-36(fp)
                        }
                    }
                    
                    //                        
                    if (!bError){
 2040b70:	e0bff717 	ldw	r2,-36(fp)
 2040b74:	1000261e 	bne	r2,zero,2040c10 <Fat_FileBrowseNext+0x210>
                        int BaseOffset;
                        bLongFilename = TRUE;
 2040b78:	00800044 	movi	r2,1
 2040b7c:	e0bff815 	stw	r2,-32(fp)
                        OrderValue--;
 2040b80:	e0bff917 	ldw	r2,-28(fp)
 2040b84:	10bfffc4 	addi	r2,r2,-1
 2040b88:	e0bff915 	stw	r2,-28(fp)
                        BaseOffset = OrderValue * 26;
 2040b8c:	e0bff917 	ldw	r2,-28(fp)
 2040b90:	108006a4 	muli	r2,r2,26
 2040b94:	e0bffd15 	stw	r2,-12(fp)
                        // cast filename
                        memcpy(pFileContext->szName+BaseOffset, pLDIR->LDIR_Name1, 10);
 2040b98:	e0bffd17 	ldw	r2,-12(fp)
 2040b9c:	e0ffff17 	ldw	r3,-4(fp)
 2040ba0:	1887883a 	add	r3,r3,r2
 2040ba4:	e0bffc17 	ldw	r2,-16(fp)
 2040ba8:	10800044 	addi	r2,r2,1
 2040bac:	1809883a 	mov	r4,r3
 2040bb0:	100b883a 	mov	r5,r2
 2040bb4:	01800284 	movi	r6,10
 2040bb8:	204870c0 	call	204870c <memcpy>
                        memcpy(pFileContext->szName+BaseOffset+10, pLDIR->LDIR_Name2, 12);
 2040bbc:	e0bffd17 	ldw	r2,-12(fp)
 2040bc0:	10800284 	addi	r2,r2,10
 2040bc4:	e0ffff17 	ldw	r3,-4(fp)
 2040bc8:	1887883a 	add	r3,r3,r2
 2040bcc:	e0bffc17 	ldw	r2,-16(fp)
 2040bd0:	10800384 	addi	r2,r2,14
 2040bd4:	1809883a 	mov	r4,r3
 2040bd8:	100b883a 	mov	r5,r2
 2040bdc:	01800304 	movi	r6,12
 2040be0:	204870c0 	call	204870c <memcpy>
                        memcpy(pFileContext->szName+BaseOffset+22, pLDIR->LDIR_Name3, 4);
 2040be4:	e0bffd17 	ldw	r2,-12(fp)
 2040be8:	10800584 	addi	r2,r2,22
 2040bec:	e0ffff17 	ldw	r3,-4(fp)
 2040bf0:	1887883a 	add	r3,r3,r2
 2040bf4:	e0bffc17 	ldw	r2,-16(fp)
 2040bf8:	10800704 	addi	r2,r2,28
 2040bfc:	1809883a 	mov	r4,r3
 2040c00:	100b883a 	mov	r5,r2
 2040c04:	01800104 	movi	r6,4
 2040c08:	204870c0 	call	204870c <memcpy>
 2040c0c:	00007a06 	br	2040df8 <Fat_FileBrowseNext+0x3f8>
 2040c10:	00007906 	br	2040df8 <Fat_FileBrowseNext+0x3f8>
                    }                        
                }else{
                    if (bLongFilename){
 2040c14:	e0bff817 	ldw	r2,-32(fp)
 2040c18:	10000e26 	beq	r2,zero,2040c54 <Fat_FileBrowseNext+0x254>
                        pFileContext->Attribute = ATTR_LONG_NAME;
 2040c1c:	e0bfff17 	ldw	r2,-4(fp)
 2040c20:	00c003c4 	movi	r3,15
 2040c24:	10c04505 	stb	r3,276(r2)
                        if ((pDir->Attribute & (ATTR_ARCHIVE | ATTR_DIRECTORY)) == 0)
 2040c28:	e0bffb17 	ldw	r2,-20(fp)
 2040c2c:	108002c3 	ldbu	r2,11(r2)
 2040c30:	10803fcc 	andi	r2,r2,255
 2040c34:	10800c0c 	andi	r2,r2,48
 2040c38:	1000031e 	bne	r2,zero,2040c48 <Fat_FileBrowseNext+0x248>
                            bError = TRUE;
 2040c3c:	00800044 	movi	r2,1
 2040c40:	e0bff715 	stw	r2,-36(fp)
 2040c44:	00000906 	br	2040c6c <Fat_FileBrowseNext+0x26c>
                        else    
                            bFind = TRUE;
 2040c48:	00800044 	movi	r2,1
 2040c4c:	e0bff615 	stw	r2,-40(fp)
 2040c50:	00000606 	br	2040c6c <Fat_FileBrowseNext+0x26c>
                    }else{
                        fatComposeShortFilename(pDir, pFileContext->szName);
 2040c54:	e0bfff17 	ldw	r2,-4(fp)
 2040c58:	e13ffb17 	ldw	r4,-20(fp)
 2040c5c:	100b883a 	mov	r5,r2
 2040c60:	2040f2c0 	call	2040f2c <fatComposeShortFilename>
                        bFind = TRUE;
 2040c64:	00800044 	movi	r2,1
 2040c68:	e0bff615 	stw	r2,-40(fp)
                    }
                    
                    if (bFind){
 2040c6c:	e0bff617 	ldw	r2,-40(fp)
 2040c70:	10006126 	beq	r2,zero,2040df8 <Fat_FileBrowseNext+0x3f8>
                        // my ext
                        pFileContext->bLongFilename = bLongFilename;
 2040c74:	e0bfff17 	ldw	r2,-4(fp)
 2040c78:	e0fff817 	ldw	r3,-32(fp)
 2040c7c:	10c04015 	stw	r3,256(r2)
                        pFileContext->bFile = (pDir->Attribute & ATTR_ARCHIVE)?TRUE:FALSE;
 2040c80:	e0bffb17 	ldw	r2,-20(fp)
 2040c84:	108002c3 	ldbu	r2,11(r2)
 2040c88:	10803fcc 	andi	r2,r2,255
 2040c8c:	1080080c 	andi	r2,r2,32
 2040c90:	1004c03a 	cmpne	r2,r2,zero
 2040c94:	10c03fcc 	andi	r3,r2,255
 2040c98:	e0bfff17 	ldw	r2,-4(fp)
 2040c9c:	10c04115 	stw	r3,260(r2)
                        pFileContext->bDirectory = (pDir->Attribute & ATTR_DIRECTORY)?TRUE:FALSE;
 2040ca0:	e0bffb17 	ldw	r2,-20(fp)
 2040ca4:	108002c3 	ldbu	r2,11(r2)
 2040ca8:	10803fcc 	andi	r2,r2,255
 2040cac:	1080040c 	andi	r2,r2,16
 2040cb0:	1004c03a 	cmpne	r2,r2,zero
 2040cb4:	10c03fcc 	andi	r3,r2,255
 2040cb8:	e0bfff17 	ldw	r2,-4(fp)
 2040cbc:	10c04215 	stw	r3,264(r2)
                        pFileContext->bVolume = (pDir->Attribute & ATTR_VOLUME_ID)?TRUE:FALSE;
 2040cc0:	e0bffb17 	ldw	r2,-20(fp)
 2040cc4:	108002c3 	ldbu	r2,11(r2)
 2040cc8:	10803fcc 	andi	r2,r2,255
 2040ccc:	1080020c 	andi	r2,r2,8
 2040cd0:	1004c03a 	cmpne	r2,r2,zero
 2040cd4:	10c03fcc 	andi	r3,r2,255
 2040cd8:	e0bfff17 	ldw	r2,-4(fp)
 2040cdc:	10c04315 	stw	r3,268(r2)
                        pFileContext->DirEntryIndex = pFatBrowseHandle->DirectoryIndex; // add in v2.0.0
 2040ce0:	e0bffe17 	ldw	r2,-8(fp)
 2040ce4:	10c00017 	ldw	r3,0(r2)
 2040ce8:	e0bfff17 	ldw	r2,-4(fp)
 2040cec:	10c04415 	stw	r3,272(r2)
                        
                        //
                        pFileContext->Attribute = pDir->Attribute;
 2040cf0:	e0bffb17 	ldw	r2,-20(fp)
 2040cf4:	10c002c3 	ldbu	r3,11(r2)
 2040cf8:	e0bfff17 	ldw	r2,-4(fp)
 2040cfc:	10c04505 	stb	r3,276(r2)
                        pFileContext->CreateTime = pDir->CreateTime;
 2040d00:	e0bffb17 	ldw	r2,-20(fp)
 2040d04:	10c00383 	ldbu	r3,14(r2)
 2040d08:	108003c3 	ldbu	r2,15(r2)
 2040d0c:	1004923a 	slli	r2,r2,8
 2040d10:	10c4b03a 	or	r2,r2,r3
 2040d14:	1007883a 	mov	r3,r2
 2040d18:	e0bfff17 	ldw	r2,-4(fp)
 2040d1c:	10c0458d 	sth	r3,278(r2)
                        pFileContext->LastAccessDate = pDir->LastAccessDate;
 2040d20:	e0bffb17 	ldw	r2,-20(fp)
 2040d24:	10c00483 	ldbu	r3,18(r2)
 2040d28:	108004c3 	ldbu	r2,19(r2)
 2040d2c:	1004923a 	slli	r2,r2,8
 2040d30:	10c4b03a 	or	r2,r2,r3
 2040d34:	1007883a 	mov	r3,r2
 2040d38:	e0bfff17 	ldw	r2,-4(fp)
 2040d3c:	10c0468d 	sth	r3,282(r2)
                        pFileContext->FirstLogicalClusterHi = pDir->FirstLogicalClusterHi;
 2040d40:	e0bffb17 	ldw	r2,-20(fp)
 2040d44:	10c00503 	ldbu	r3,20(r2)
 2040d48:	10800543 	ldbu	r2,21(r2)
 2040d4c:	1004923a 	slli	r2,r2,8
 2040d50:	10c4b03a 	or	r2,r2,r3
 2040d54:	1007883a 	mov	r3,r2
 2040d58:	e0bfff17 	ldw	r2,-4(fp)
 2040d5c:	10c0470d 	sth	r3,284(r2)
                        pFileContext->LastWriteTime = pDir->LastWriteTime;
 2040d60:	e0bffb17 	ldw	r2,-20(fp)
 2040d64:	10c00583 	ldbu	r3,22(r2)
 2040d68:	108005c3 	ldbu	r2,23(r2)
 2040d6c:	1004923a 	slli	r2,r2,8
 2040d70:	10c4b03a 	or	r2,r2,r3
 2040d74:	1007883a 	mov	r3,r2
 2040d78:	e0bfff17 	ldw	r2,-4(fp)
 2040d7c:	10c0478d 	sth	r3,286(r2)
                        pFileContext->LastWriteDate = pDir->LastWriteDate;
 2040d80:	e0bffb17 	ldw	r2,-20(fp)
 2040d84:	10c00603 	ldbu	r3,24(r2)
 2040d88:	10800643 	ldbu	r2,25(r2)
 2040d8c:	1004923a 	slli	r2,r2,8
 2040d90:	10c4b03a 	or	r2,r2,r3
 2040d94:	1007883a 	mov	r3,r2
 2040d98:	e0bfff17 	ldw	r2,-4(fp)
 2040d9c:	10c0480d 	sth	r3,288(r2)
                        pFileContext->FirstLogicalCluster = pDir->FirstLogicalCluster;
 2040da0:	e0bffb17 	ldw	r2,-20(fp)
 2040da4:	10c00683 	ldbu	r3,26(r2)
 2040da8:	108006c3 	ldbu	r2,27(r2)
 2040dac:	1004923a 	slli	r2,r2,8
 2040db0:	10c4b03a 	or	r2,r2,r3
 2040db4:	1007883a 	mov	r3,r2
 2040db8:	e0bfff17 	ldw	r2,-4(fp)
 2040dbc:	10c0488d 	sth	r3,290(r2)
                        pFileContext->FileSize = pDir->FileSize;
 2040dc0:	e0bffb17 	ldw	r2,-20(fp)
 2040dc4:	10c00703 	ldbu	r3,28(r2)
 2040dc8:	11000743 	ldbu	r4,29(r2)
 2040dcc:	2008923a 	slli	r4,r4,8
 2040dd0:	20c6b03a 	or	r3,r4,r3
 2040dd4:	11000783 	ldbu	r4,30(r2)
 2040dd8:	2008943a 	slli	r4,r4,16
 2040ddc:	20c6b03a 	or	r3,r4,r3
 2040de0:	108007c3 	ldbu	r2,31(r2)
 2040de4:	1004963a 	slli	r2,r2,24
 2040de8:	10c4b03a 	or	r2,r2,r3
 2040dec:	1007883a 	mov	r3,r2
 2040df0:	e0bfff17 	ldw	r2,-4(fp)
 2040df4:	10c04915 	stw	r3,292(r2)
                    }                        
                }                    
            }                
        }            
    }while (!bFind && !fatIsLastDir(pDir) && !bError);
 2040df8:	e0bff617 	ldw	r2,-40(fp)
 2040dfc:	1000051e 	bne	r2,zero,2040e14 <Fat_FileBrowseNext+0x414>
 2040e00:	e13ffb17 	ldw	r4,-20(fp)
 2040e04:	20421980 	call	2042198 <fatIsLastDir>
 2040e08:	1000021e 	bne	r2,zero,2040e14 <Fat_FileBrowseNext+0x414>
 2040e0c:	e0bff717 	ldw	r2,-36(fp)
 2040e10:	103f1126 	beq	r2,zero,2040a58 <__alt_data_end+0xfffc0a58>
    
    return bFind;
 2040e14:	e0bff617 	ldw	r2,-40(fp)
    
}
 2040e18:	e037883a 	mov	sp,fp
 2040e1c:	dfc00117 	ldw	ra,4(sp)
 2040e20:	df000017 	ldw	fp,0(sp)
 2040e24:	dec00204 	addi	sp,sp,8
 2040e28:	f800283a 	ret

02040e2c <Fat_FileCount>:


unsigned int Fat_FileCount(FAT_HANDLE Fat){
 2040e2c:	deffb004 	addi	sp,sp,-320
 2040e30:	dfc04f15 	stw	ra,316(sp)
 2040e34:	df004e15 	stw	fp,312(sp)
 2040e38:	df004e04 	addi	fp,sp,312
 2040e3c:	e13fff15 	stw	r4,-4(fp)
    unsigned int nCount = 0;
 2040e40:	e03fb215 	stw	zero,-312(fp)
    FAT_BROWSE_HANDLE hBrowse;
    FILE_CONTEXT FileContext;
    
    if (Fat_FileBrowseBegin(Fat, &hBrowse)){
 2040e44:	e0bfb304 	addi	r2,fp,-308
 2040e48:	e13fff17 	ldw	r4,-4(fp)
 2040e4c:	100b883a 	mov	r5,r2
 2040e50:	20409940 	call	2040994 <Fat_FileBrowseBegin>
 2040e54:	10000a26 	beq	r2,zero,2040e80 <Fat_FileCount+0x54>
        while(Fat_FileBrowseNext(&hBrowse, &FileContext))
 2040e58:	00000306 	br	2040e68 <Fat_FileCount+0x3c>
            nCount++;
 2040e5c:	e0bfb217 	ldw	r2,-312(fp)
 2040e60:	10800044 	addi	r2,r2,1
 2040e64:	e0bfb215 	stw	r2,-312(fp)
    unsigned int nCount = 0;
    FAT_BROWSE_HANDLE hBrowse;
    FILE_CONTEXT FileContext;
    
    if (Fat_FileBrowseBegin(Fat, &hBrowse)){
        while(Fat_FileBrowseNext(&hBrowse, &FileContext))
 2040e68:	e0ffb304 	addi	r3,fp,-308
 2040e6c:	e0bfb504 	addi	r2,fp,-300
 2040e70:	1809883a 	mov	r4,r3
 2040e74:	100b883a 	mov	r5,r2
 2040e78:	2040a000 	call	2040a00 <Fat_FileBrowseNext>
 2040e7c:	103ff71e 	bne	r2,zero,2040e5c <__alt_data_end+0xfffc0e5c>
            nCount++;
    }
    
    return nCount;
 2040e80:	e0bfb217 	ldw	r2,-312(fp)
}
 2040e84:	e037883a 	mov	sp,fp
 2040e88:	dfc00117 	ldw	ra,4(sp)
 2040e8c:	df000017 	ldw	fp,0(sp)
 2040e90:	dec00204 	addi	sp,sp,8
 2040e94:	f800283a 	ret

02040e98 <fatSameLongFilename>:

bool fatSameLongFilename(alt_u16 *p1, alt_u16 *p2){
 2040e98:	defffc04 	addi	sp,sp,-16
 2040e9c:	df000315 	stw	fp,12(sp)
 2040ea0:	df000304 	addi	fp,sp,12
 2040ea4:	e13ffe15 	stw	r4,-8(fp)
 2040ea8:	e17fff15 	stw	r5,-4(fp)
    bool bSame = TRUE;
 2040eac:	00800044 	movi	r2,1
 2040eb0:	e0bffd15 	stw	r2,-12(fp)
    
    while(bSame && ((*p1 != 0) || (*p2 != 0))){
 2040eb4:	00000e06 	br	2040ef0 <fatSameLongFilename+0x58>
        if (*p1 != *p2){
 2040eb8:	e0bffe17 	ldw	r2,-8(fp)
 2040ebc:	10c0000b 	ldhu	r3,0(r2)
 2040ec0:	e0bfff17 	ldw	r2,-4(fp)
 2040ec4:	1080000b 	ldhu	r2,0(r2)
 2040ec8:	18ffffcc 	andi	r3,r3,65535
 2040ecc:	10bfffcc 	andi	r2,r2,65535
 2040ed0:	18800126 	beq	r3,r2,2040ed8 <fatSameLongFilename+0x40>
            bSame = FALSE;
 2040ed4:	e03ffd15 	stw	zero,-12(fp)
        }
        p1++;
 2040ed8:	e0bffe17 	ldw	r2,-8(fp)
 2040edc:	10800084 	addi	r2,r2,2
 2040ee0:	e0bffe15 	stw	r2,-8(fp)
        p2++;
 2040ee4:	e0bfff17 	ldw	r2,-4(fp)
 2040ee8:	10800084 	addi	r2,r2,2
 2040eec:	e0bfff15 	stw	r2,-4(fp)
}

bool fatSameLongFilename(alt_u16 *p1, alt_u16 *p2){
    bool bSame = TRUE;
    
    while(bSame && ((*p1 != 0) || (*p2 != 0))){
 2040ef0:	e0bffd17 	ldw	r2,-12(fp)
 2040ef4:	10000826 	beq	r2,zero,2040f18 <fatSameLongFilename+0x80>
 2040ef8:	e0bffe17 	ldw	r2,-8(fp)
 2040efc:	1080000b 	ldhu	r2,0(r2)
 2040f00:	10bfffcc 	andi	r2,r2,65535
 2040f04:	103fec1e 	bne	r2,zero,2040eb8 <__alt_data_end+0xfffc0eb8>
 2040f08:	e0bfff17 	ldw	r2,-4(fp)
 2040f0c:	1080000b 	ldhu	r2,0(r2)
 2040f10:	10bfffcc 	andi	r2,r2,65535
 2040f14:	103fe81e 	bne	r2,zero,2040eb8 <__alt_data_end+0xfffc0eb8>
        p1++;
        p2++;
        
    }
    
    return bSame;
 2040f18:	e0bffd17 	ldw	r2,-12(fp)
}
 2040f1c:	e037883a 	mov	sp,fp
 2040f20:	df000017 	ldw	fp,0(sp)
 2040f24:	dec00104 	addi	sp,sp,4
 2040f28:	f800283a 	ret

02040f2c <fatComposeShortFilename>:


void fatComposeShortFilename(FAT_DIRECTORY *pDir, char *szFilename){
 2040f2c:	defffb04 	addi	sp,sp,-20
 2040f30:	df000415 	stw	fp,16(sp)
 2040f34:	df000404 	addi	fp,sp,16
 2040f38:	e13ffe15 	stw	r4,-8(fp)
 2040f3c:	e17fff15 	stw	r5,-4(fp)
    int i,nPos=0;
 2040f40:	e03ffd15 	stw	zero,-12(fp)
    
    i=0;
 2040f44:	e03ffc15 	stw	zero,-16(fp)
    while(i < 8 && pDir->Name[i] != 0 && pDir->Name[i] != ' ')
 2040f48:	00000d06 	br	2040f80 <fatComposeShortFilename+0x54>
        szFilename[nPos++] = pDir->Name[i++];
 2040f4c:	e0bffd17 	ldw	r2,-12(fp)
 2040f50:	10c00044 	addi	r3,r2,1
 2040f54:	e0fffd15 	stw	r3,-12(fp)
 2040f58:	1007883a 	mov	r3,r2
 2040f5c:	e0bfff17 	ldw	r2,-4(fp)
 2040f60:	10c7883a 	add	r3,r2,r3
 2040f64:	e0bffc17 	ldw	r2,-16(fp)
 2040f68:	11000044 	addi	r4,r2,1
 2040f6c:	e13ffc15 	stw	r4,-16(fp)
 2040f70:	e13ffe17 	ldw	r4,-8(fp)
 2040f74:	2085883a 	add	r2,r4,r2
 2040f78:	10800003 	ldbu	r2,0(r2)
 2040f7c:	18800005 	stb	r2,0(r3)

void fatComposeShortFilename(FAT_DIRECTORY *pDir, char *szFilename){
    int i,nPos=0;
    
    i=0;
    while(i < 8 && pDir->Name[i] != 0 && pDir->Name[i] != ' ')
 2040f80:	e0bffc17 	ldw	r2,-16(fp)
 2040f84:	10800208 	cmpgei	r2,r2,8
 2040f88:	1000111e 	bne	r2,zero,2040fd0 <fatComposeShortFilename+0xa4>
 2040f8c:	e0fffe17 	ldw	r3,-8(fp)
 2040f90:	e0bffc17 	ldw	r2,-16(fp)
 2040f94:	1885883a 	add	r2,r3,r2
 2040f98:	10800003 	ldbu	r2,0(r2)
 2040f9c:	10803fcc 	andi	r2,r2,255
 2040fa0:	1080201c 	xori	r2,r2,128
 2040fa4:	10bfe004 	addi	r2,r2,-128
 2040fa8:	10000926 	beq	r2,zero,2040fd0 <fatComposeShortFilename+0xa4>
 2040fac:	e0fffe17 	ldw	r3,-8(fp)
 2040fb0:	e0bffc17 	ldw	r2,-16(fp)
 2040fb4:	1885883a 	add	r2,r3,r2
 2040fb8:	10800003 	ldbu	r2,0(r2)
 2040fbc:	10803fcc 	andi	r2,r2,255
 2040fc0:	1080201c 	xori	r2,r2,128
 2040fc4:	10bfe004 	addi	r2,r2,-128
 2040fc8:	10800818 	cmpnei	r2,r2,32
 2040fcc:	103fdf1e 	bne	r2,zero,2040f4c <__alt_data_end+0xfffc0f4c>
        szFilename[nPos++] = pDir->Name[i++];
    
    if (pDir->Attribute & (ATTR_ARCHIVE | ATTR_DIRECTORY)){
 2040fd0:	e0bffe17 	ldw	r2,-8(fp)
 2040fd4:	108002c3 	ldbu	r2,11(r2)
 2040fd8:	10803fcc 	andi	r2,r2,255
 2040fdc:	10800c0c 	andi	r2,r2,48
 2040fe0:	10003326 	beq	r2,zero,20410b0 <fatComposeShortFilename+0x184>
        if (pDir->Attribute & (ATTR_ARCHIVE | ATTR_DIRECTORY))     
 2040fe4:	e0bffe17 	ldw	r2,-8(fp)
 2040fe8:	108002c3 	ldbu	r2,11(r2)
 2040fec:	10803fcc 	andi	r2,r2,255
 2040ff0:	10800c0c 	andi	r2,r2,48
 2040ff4:	10000826 	beq	r2,zero,2041018 <fatComposeShortFilename+0xec>
            szFilename[nPos++] = '.';   
 2040ff8:	e0bffd17 	ldw	r2,-12(fp)
 2040ffc:	10c00044 	addi	r3,r2,1
 2041000:	e0fffd15 	stw	r3,-12(fp)
 2041004:	1007883a 	mov	r3,r2
 2041008:	e0bfff17 	ldw	r2,-4(fp)
 204100c:	10c5883a 	add	r2,r2,r3
 2041010:	00c00b84 	movi	r3,46
 2041014:	10c00005 	stb	r3,0(r2)
        i=0;
 2041018:	e03ffc15 	stw	zero,-16(fp)
        while(i < 3 && pDir->Extension[i] != 0 && pDir->Extension[i] != ' ')
 204101c:	00000e06 	br	2041058 <fatComposeShortFilename+0x12c>
            szFilename[nPos++] = pDir->Extension[i++];
 2041020:	e0bffd17 	ldw	r2,-12(fp)
 2041024:	10c00044 	addi	r3,r2,1
 2041028:	e0fffd15 	stw	r3,-12(fp)
 204102c:	1007883a 	mov	r3,r2
 2041030:	e0bfff17 	ldw	r2,-4(fp)
 2041034:	10c7883a 	add	r3,r2,r3
 2041038:	e0bffc17 	ldw	r2,-16(fp)
 204103c:	11000044 	addi	r4,r2,1
 2041040:	e13ffc15 	stw	r4,-16(fp)
 2041044:	e13ffe17 	ldw	r4,-8(fp)
 2041048:	2085883a 	add	r2,r4,r2
 204104c:	10800204 	addi	r2,r2,8
 2041050:	10800003 	ldbu	r2,0(r2)
 2041054:	18800005 	stb	r2,0(r3)
    
    if (pDir->Attribute & (ATTR_ARCHIVE | ATTR_DIRECTORY)){
        if (pDir->Attribute & (ATTR_ARCHIVE | ATTR_DIRECTORY))     
            szFilename[nPos++] = '.';   
        i=0;
        while(i < 3 && pDir->Extension[i] != 0 && pDir->Extension[i] != ' ')
 2041058:	e0bffc17 	ldw	r2,-16(fp)
 204105c:	108000c8 	cmpgei	r2,r2,3
 2041060:	1000131e 	bne	r2,zero,20410b0 <fatComposeShortFilename+0x184>
 2041064:	e0fffe17 	ldw	r3,-8(fp)
 2041068:	e0bffc17 	ldw	r2,-16(fp)
 204106c:	1885883a 	add	r2,r3,r2
 2041070:	10800204 	addi	r2,r2,8
 2041074:	10800003 	ldbu	r2,0(r2)
 2041078:	10803fcc 	andi	r2,r2,255
 204107c:	1080201c 	xori	r2,r2,128
 2041080:	10bfe004 	addi	r2,r2,-128
 2041084:	10000a26 	beq	r2,zero,20410b0 <fatComposeShortFilename+0x184>
 2041088:	e0fffe17 	ldw	r3,-8(fp)
 204108c:	e0bffc17 	ldw	r2,-16(fp)
 2041090:	1885883a 	add	r2,r3,r2
 2041094:	10800204 	addi	r2,r2,8
 2041098:	10800003 	ldbu	r2,0(r2)
 204109c:	10803fcc 	andi	r2,r2,255
 20410a0:	1080201c 	xori	r2,r2,128
 20410a4:	10bfe004 	addi	r2,r2,-128
 20410a8:	10800818 	cmpnei	r2,r2,32
 20410ac:	103fdc1e 	bne	r2,zero,2041020 <__alt_data_end+0xfffc1020>
            szFilename[nPos++] = pDir->Extension[i++];
    }            
    szFilename[nPos++] = 0;
 20410b0:	e0bffd17 	ldw	r2,-12(fp)
 20410b4:	10c00044 	addi	r3,r2,1
 20410b8:	e0fffd15 	stw	r3,-12(fp)
 20410bc:	1007883a 	mov	r3,r2
 20410c0:	e0bfff17 	ldw	r2,-4(fp)
 20410c4:	10c5883a 	add	r2,r2,r3
 20410c8:	10000005 	stb	zero,0(r2)
}
 20410cc:	e037883a 	mov	sp,fp
 20410d0:	df000017 	ldw	fp,0(sp)
 20410d4:	dec00104 	addi	sp,sp,4
 20410d8:	f800283a 	ret

020410dc <Fat_FileExist>:





bool Fat_FileExist(FAT_HANDLE Fat, const char *pFilename){
 20410dc:	deffaf04 	addi	sp,sp,-324
 20410e0:	dfc05015 	stw	ra,320(sp)
 20410e4:	df004f15 	stw	fp,316(sp)
 20410e8:	df004f04 	addi	fp,sp,316
 20410ec:	e13ffe15 	stw	r4,-8(fp)
 20410f0:	e17fff15 	stw	r5,-4(fp)
    bool bFind = FALSE;
 20410f4:	e03fb115 	stw	zero,-316(fp)
    FAT_BROWSE_HANDLE hBrowse;     
    FILE_CONTEXT FileContext;
    if (Fat_FileBrowseBegin(Fat, &hBrowse)){
 20410f8:	e0bfb204 	addi	r2,fp,-312
 20410fc:	e13ffe17 	ldw	r4,-8(fp)
 2041100:	100b883a 	mov	r5,r2
 2041104:	20409940 	call	2040994 <Fat_FileBrowseBegin>
 2041108:	10001a26 	beq	r2,zero,2041174 <Fat_FileExist+0x98>
        while (!bFind && Fat_FileBrowseNext(&hBrowse, &FileContext)){
 204110c:	00000f06 	br	204114c <Fat_FileExist+0x70>
            if (FileContext.bLongFilename){
 2041110:	e0bff417 	ldw	r2,-48(fp)
 2041114:	10000626 	beq	r2,zero,2041130 <Fat_FileExist+0x54>
                bFind = fatSameLongFilename((alt_u16 *)FileContext.szName, (alt_u16 *)pFilename);
 2041118:	e0bfb404 	addi	r2,fp,-304
 204111c:	1009883a 	mov	r4,r2
 2041120:	e17fff17 	ldw	r5,-4(fp)
 2041124:	2040e980 	call	2040e98 <fatSameLongFilename>
 2041128:	e0bfb115 	stw	r2,-316(fp)
 204112c:	00000706 	br	204114c <Fat_FileExist+0x70>
            }else{
                if (strcmpi(FileContext.szName, pFilename) == 0)
 2041130:	e0bfb404 	addi	r2,fp,-304
 2041134:	1009883a 	mov	r4,r2
 2041138:	e17fff17 	ldw	r5,-4(fp)
 204113c:	2048f980 	call	2048f98 <strcasecmp>
 2041140:	1000021e 	bne	r2,zero,204114c <Fat_FileExist+0x70>
                    bFind = TRUE;
 2041144:	00800044 	movi	r2,1
 2041148:	e0bfb115 	stw	r2,-316(fp)
bool Fat_FileExist(FAT_HANDLE Fat, const char *pFilename){
    bool bFind = FALSE;
    FAT_BROWSE_HANDLE hBrowse;     
    FILE_CONTEXT FileContext;
    if (Fat_FileBrowseBegin(Fat, &hBrowse)){
        while (!bFind && Fat_FileBrowseNext(&hBrowse, &FileContext)){
 204114c:	e0bfb117 	ldw	r2,-316(fp)
 2041150:	1000061e 	bne	r2,zero,204116c <Fat_FileExist+0x90>
 2041154:	e0ffb204 	addi	r3,fp,-312
 2041158:	e0bfb404 	addi	r2,fp,-304
 204115c:	1809883a 	mov	r4,r3
 2041160:	100b883a 	mov	r5,r2
 2041164:	2040a000 	call	2040a00 <Fat_FileBrowseNext>
 2041168:	103fe91e 	bne	r2,zero,2041110 <__alt_data_end+0xfffc1110>
            }else{
                if (strcmpi(FileContext.szName, pFilename) == 0)
                    bFind = TRUE;
            }    
        } // while 
        Fat_FileClose(Fat); 
 204116c:	e13ffe17 	ldw	r4,-8(fp)
 2041170:	20418680 	call	2041868 <Fat_FileClose>
    }
    return bFind;            
 2041174:	e0bfb117 	ldw	r2,-316(fp)
}    
 2041178:	e037883a 	mov	sp,fp
 204117c:	dfc00117 	ldw	ra,4(sp)
 2041180:	df000017 	ldw	fp,0(sp)
 2041184:	dec00204 	addi	sp,sp,8
 2041188:	f800283a 	ret

0204118c <Fat_FileOpen>:
 
// File Access
FAT_FILE_HANDLE Fat_FileOpen(FAT_HANDLE Fat, const char *pFilename){
 204118c:	deffae04 	addi	sp,sp,-328
 2041190:	dfc05115 	stw	ra,324(sp)
 2041194:	df005015 	stw	fp,320(sp)
 2041198:	df005004 	addi	fp,sp,320
 204119c:	e13ffe15 	stw	r4,-8(fp)
 20411a0:	e17fff15 	stw	r5,-4(fp)
    bool bFind = FALSE;
 20411a4:	e03fb015 	stw	zero,-320(fp)
    FAT_BROWSE_HANDLE hBrowse;     
    FILE_CONTEXT FileContext;
    FAT_FILE_INFO *pFile = 0;
 20411a8:	e03fb115 	stw	zero,-316(fp)
    
    if (Fat_FileBrowseBegin(Fat, &hBrowse)){
 20411ac:	e0bfb204 	addi	r2,fp,-312
 20411b0:	e13ffe17 	ldw	r4,-8(fp)
 20411b4:	100b883a 	mov	r5,r2
 20411b8:	20409940 	call	2040994 <Fat_FileBrowseBegin>
 20411bc:	10003726 	beq	r2,zero,204129c <Fat_FileOpen+0x110>
        while (!bFind && Fat_FileBrowseNext(&hBrowse, &FileContext)){
 20411c0:	00000f06 	br	2041200 <Fat_FileOpen+0x74>
            if (FileContext.bLongFilename){
 20411c4:	e0bff417 	ldw	r2,-48(fp)
 20411c8:	10000626 	beq	r2,zero,20411e4 <Fat_FileOpen+0x58>
                bFind = fatSameLongFilename((alt_u16 *)FileContext.szName, (alt_u16 *)pFilename);
 20411cc:	e0bfb404 	addi	r2,fp,-304
 20411d0:	1009883a 	mov	r4,r2
 20411d4:	e17fff17 	ldw	r5,-4(fp)
 20411d8:	2040e980 	call	2040e98 <fatSameLongFilename>
 20411dc:	e0bfb015 	stw	r2,-320(fp)
 20411e0:	00000706 	br	2041200 <Fat_FileOpen+0x74>
            }else{
                if (strcmpi(FileContext.szName, pFilename) == 0)
 20411e4:	e0bfb404 	addi	r2,fp,-304
 20411e8:	1009883a 	mov	r4,r2
 20411ec:	e17fff17 	ldw	r5,-4(fp)
 20411f0:	2048f980 	call	2048f98 <strcasecmp>
 20411f4:	1000021e 	bne	r2,zero,2041200 <Fat_FileOpen+0x74>
                    bFind = TRUE;
 20411f8:	00800044 	movi	r2,1
 20411fc:	e0bfb015 	stw	r2,-320(fp)
    FAT_BROWSE_HANDLE hBrowse;     
    FILE_CONTEXT FileContext;
    FAT_FILE_INFO *pFile = 0;
    
    if (Fat_FileBrowseBegin(Fat, &hBrowse)){
        while (!bFind && Fat_FileBrowseNext(&hBrowse, &FileContext)){
 2041200:	e0bfb017 	ldw	r2,-320(fp)
 2041204:	1000061e 	bne	r2,zero,2041220 <Fat_FileOpen+0x94>
 2041208:	e0ffb204 	addi	r3,fp,-312
 204120c:	e0bfb404 	addi	r2,fp,-304
 2041210:	1809883a 	mov	r4,r3
 2041214:	100b883a 	mov	r5,r2
 2041218:	2040a000 	call	2040a00 <Fat_FileBrowseNext>
 204121c:	103fe91e 	bne	r2,zero,20411c4 <__alt_data_end+0xfffc11c4>
                if (strcmpi(FileContext.szName, pFilename) == 0)
                    bFind = TRUE;
            }    
        } // while 
        
        if (bFind){
 2041220:	e0bfb017 	ldw	r2,-320(fp)
 2041224:	10001d26 	beq	r2,zero,204129c <Fat_FileOpen+0x110>
            pFile = malloc(sizeof(FAT_FILE_INFO));
 2041228:	01005004 	movi	r4,320
 204122c:	2047f3c0 	call	2047f3c <malloc>
 2041230:	e0bfb115 	stw	r2,-316(fp)
            if (pFile){
 2041234:	e0bfb117 	ldw	r2,-316(fp)
 2041238:	10001826 	beq	r2,zero,204129c <Fat_FileOpen+0x110>
                pFile->OpenAttribute = FILE_OPEN_READ; 
 204123c:	e0bfb117 	ldw	r2,-316(fp)
 2041240:	00c00044 	movi	r3,1
 2041244:	10c00115 	stw	r3,4(r2)
                pFile->SeekPos = 0;
 2041248:	e0bfb117 	ldw	r2,-316(fp)
 204124c:	10000215 	stw	zero,8(r2)
                pFile->Directory = FileContext;
 2041250:	e0bfb117 	ldw	r2,-316(fp)
 2041254:	11000504 	addi	r4,r2,20
 2041258:	e0ffb404 	addi	r3,fp,-304
 204125c:	00804a04 	movi	r2,296
 2041260:	180b883a 	mov	r5,r3
 2041264:	100d883a 	mov	r6,r2
 2041268:	204870c0 	call	204870c <memcpy>
                pFile->IsOpened = TRUE;
 204126c:	e0bfb117 	ldw	r2,-316(fp)
 2041270:	00c00044 	movi	r3,1
 2041274:	10c00015 	stw	r3,0(r2)
                pFile->Cluster = FileContext.FirstLogicalCluster;
 2041278:	e0bffc8b 	ldhu	r2,-14(fp)
 204127c:	10ffffcc 	andi	r3,r2,65535
 2041280:	e0bfb117 	ldw	r2,-316(fp)
 2041284:	10c00315 	stw	r3,12(r2)
                pFile->ClusterSeq = 0;
 2041288:	e0bfb117 	ldw	r2,-316(fp)
 204128c:	10000415 	stw	zero,16(r2)
                pFile->Fat = Fat;
 2041290:	e0bfb117 	ldw	r2,-316(fp)
 2041294:	e0fffe17 	ldw	r3,-8(fp)
 2041298:	10c04f15 	stw	r3,316(r2)
            }    
        }    
    }  

    
    return (FAT_FILE_HANDLE)pFile;  
 204129c:	e0bfb117 	ldw	r2,-316(fp)
}
 20412a0:	e037883a 	mov	sp,fp
 20412a4:	dfc00117 	ldw	ra,4(sp)
 20412a8:	df000017 	ldw	fp,0(sp)
 20412ac:	dec00204 	addi	sp,sp,8
 20412b0:	f800283a 	ret

020412b4 <Fat_FileSize>:


unsigned int Fat_FileSize(FAT_FILE_HANDLE hFileHandle){
 20412b4:	defffd04 	addi	sp,sp,-12
 20412b8:	df000215 	stw	fp,8(sp)
 20412bc:	df000204 	addi	fp,sp,8
 20412c0:	e13fff15 	stw	r4,-4(fp)
    FAT_FILE_INFO *f = (FAT_FILE_INFO *)hFileHandle;
 20412c4:	e0bfff17 	ldw	r2,-4(fp)
 20412c8:	e0bffe15 	stw	r2,-8(fp)
    if (f->IsOpened)
 20412cc:	e0bffe17 	ldw	r2,-8(fp)
 20412d0:	10800017 	ldw	r2,0(r2)
 20412d4:	10000326 	beq	r2,zero,20412e4 <Fat_FileSize+0x30>
        return f->Directory.FileSize;
 20412d8:	e0bffe17 	ldw	r2,-8(fp)
 20412dc:	10804e17 	ldw	r2,312(r2)
 20412e0:	00000106 	br	20412e8 <Fat_FileSize+0x34>
    return 0;        
 20412e4:	0005883a 	mov	r2,zero
}
 20412e8:	e037883a 	mov	sp,fp
 20412ec:	df000017 	ldw	fp,0(sp)
 20412f0:	dec00104 	addi	sp,sp,4
 20412f4:	f800283a 	ret

020412f8 <Fat_FileRead>:


bool Fat_FileRead(FAT_FILE_HANDLE hFileHandle, void *pBuffer, const int nBufferSize){
 20412f8:	deffef04 	addi	sp,sp,-68
 20412fc:	dfc01015 	stw	ra,64(sp)
 2041300:	df000f15 	stw	fp,60(sp)
 2041304:	df000f04 	addi	fp,sp,60
 2041308:	e13ffd15 	stw	r4,-12(fp)
 204130c:	e17ffe15 	stw	r5,-8(fp)
 2041310:	e1bfff15 	stw	r6,-4(fp)
    FAT_FILE_INFO *f = (FAT_FILE_INFO *)hFileHandle;
 2041314:	e0bffd17 	ldw	r2,-12(fp)
 2041318:	e0bff915 	stw	r2,-28(fp)
    VOLUME_INFO *pVol;
    alt_u32 Pos, PhysicalSecter, NextCluster, Cluster;
    alt_u32 BytesPerCluster, nReadCount=0, nClusterSeq;
 204131c:	e03ff415 	stw	zero,-48(fp)
    int s;
    bool bSuccess= TRUE;
 2041320:	00800044 	movi	r2,1
 2041324:	e0bff715 	stw	r2,-36(fp)
    
    if (!f || !f->Fat)
 2041328:	e0bff917 	ldw	r2,-28(fp)
 204132c:	10000326 	beq	r2,zero,204133c <Fat_FileRead+0x44>
 2041330:	e0bff917 	ldw	r2,-28(fp)
 2041334:	10804f17 	ldw	r2,316(r2)
 2041338:	1000021e 	bne	r2,zero,2041344 <Fat_FileRead+0x4c>
        return FALSE;
 204133c:	0005883a 	mov	r2,zero
 2041340:	00010406 	br	2041754 <Fat_FileRead+0x45c>
    pVol = (VOLUME_INFO *)f->Fat;        
 2041344:	e0bff917 	ldw	r2,-28(fp)
 2041348:	10804f17 	ldw	r2,316(r2)
 204134c:	e0bffa15 	stw	r2,-24(fp)
    
    if (!f->IsOpened){
 2041350:	e0bff917 	ldw	r2,-28(fp)
 2041354:	10800017 	ldw	r2,0(r2)
 2041358:	1000021e 	bne	r2,zero,2041364 <Fat_FileRead+0x6c>
        FAT_DEBUG(("[FAT] Fat_FileRead, file not opened\r\n"));
        return bSuccess;
 204135c:	e0bff717 	ldw	r2,-36(fp)
 2041360:	0000fc06 	br	2041754 <Fat_FileRead+0x45c>
    }        
        
    BytesPerCluster = pVol->nBytesPerCluster; //gVolumeInfo.BPB_BytsPerSec * gVolumeInfo.BPB_SecPerCluster;  
 2041364:	e0bffa17 	ldw	r2,-24(fp)
 2041368:	10800c17 	ldw	r2,48(r2)
 204136c:	e0bffb15 	stw	r2,-20(fp)
    Pos = f->SeekPos;
 2041370:	e0bff917 	ldw	r2,-28(fp)
 2041374:	10800217 	ldw	r2,8(r2)
 2041378:	e0bff115 	stw	r2,-60(fp)
    if (BytesPerCluster == 32768){
 204137c:	e0fffb17 	ldw	r3,-20(fp)
 2041380:	00a00014 	movui	r2,32768
 2041384:	18800a1e 	bne	r3,r2,20413b0 <Fat_FileRead+0xb8>
        nClusterSeq = Pos >> 15;
 2041388:	e0bff117 	ldw	r2,-60(fp)
 204138c:	1004d3fa 	srli	r2,r2,15
 2041390:	e0bff515 	stw	r2,-44(fp)
        Pos -= (f->ClusterSeq << 15);
 2041394:	e0bff917 	ldw	r2,-28(fp)
 2041398:	10800417 	ldw	r2,16(r2)
 204139c:	100493fa 	slli	r2,r2,15
 20413a0:	e0fff117 	ldw	r3,-60(fp)
 20413a4:	1885c83a 	sub	r2,r3,r2
 20413a8:	e0bff115 	stw	r2,-60(fp)
 20413ac:	00002506 	br	2041444 <Fat_FileRead+0x14c>
    }else if (BytesPerCluster == 16384){
 20413b0:	e0bffb17 	ldw	r2,-20(fp)
 20413b4:	10900018 	cmpnei	r2,r2,16384
 20413b8:	10000a1e 	bne	r2,zero,20413e4 <Fat_FileRead+0xec>
        nClusterSeq = Pos >> 14;
 20413bc:	e0bff117 	ldw	r2,-60(fp)
 20413c0:	1004d3ba 	srli	r2,r2,14
 20413c4:	e0bff515 	stw	r2,-44(fp)
        Pos -= (f->ClusterSeq << 14);
 20413c8:	e0bff917 	ldw	r2,-28(fp)
 20413cc:	10800417 	ldw	r2,16(r2)
 20413d0:	100493ba 	slli	r2,r2,14
 20413d4:	e0fff117 	ldw	r3,-60(fp)
 20413d8:	1885c83a 	sub	r2,r3,r2
 20413dc:	e0bff115 	stw	r2,-60(fp)
 20413e0:	00001806 	br	2041444 <Fat_FileRead+0x14c>
    }else if (BytesPerCluster == 2048){
 20413e4:	e0bffb17 	ldw	r2,-20(fp)
 20413e8:	10820018 	cmpnei	r2,r2,2048
 20413ec:	10000a1e 	bne	r2,zero,2041418 <Fat_FileRead+0x120>
        nClusterSeq = Pos >> 11;
 20413f0:	e0bff117 	ldw	r2,-60(fp)
 20413f4:	1004d2fa 	srli	r2,r2,11
 20413f8:	e0bff515 	stw	r2,-44(fp)
        Pos -= (f->ClusterSeq << 11);
 20413fc:	e0bff917 	ldw	r2,-28(fp)
 2041400:	10800417 	ldw	r2,16(r2)
 2041404:	100492fa 	slli	r2,r2,11
 2041408:	e0fff117 	ldw	r3,-60(fp)
 204140c:	1885c83a 	sub	r2,r3,r2
 2041410:	e0bff115 	stw	r2,-60(fp)
 2041414:	00000b06 	br	2041444 <Fat_FileRead+0x14c>
    }else{        
        nClusterSeq = Pos/BytesPerCluster;
 2041418:	e13ff117 	ldw	r4,-60(fp)
 204141c:	e17ffb17 	ldw	r5,-20(fp)
 2041420:	20454a00 	call	20454a0 <__udivsi3>
 2041424:	e0bff515 	stw	r2,-44(fp)
        Pos -= f->ClusterSeq*BytesPerCluster;
 2041428:	e0bff917 	ldw	r2,-28(fp)
 204142c:	10c00417 	ldw	r3,16(r2)
 2041430:	e0bffb17 	ldw	r2,-20(fp)
 2041434:	1885383a 	mul	r2,r3,r2
 2041438:	e0fff117 	ldw	r3,-60(fp)
 204143c:	1885c83a 	sub	r2,r3,r2
 2041440:	e0bff115 	stw	r2,-60(fp)
    }    
        
       
    Cluster = f->Cluster;
 2041444:	e0bff917 	ldw	r2,-28(fp)
 2041448:	10800317 	ldw	r2,12(r2)
 204144c:	e0bff315 	stw	r2,-52(fp)
    if (nClusterSeq != f->ClusterSeq){
 2041450:	e0bff917 	ldw	r2,-28(fp)
 2041454:	10c00417 	ldw	r3,16(r2)
 2041458:	e0bff517 	ldw	r2,-44(fp)
 204145c:	18801f26 	beq	r3,r2,20414dc <Fat_FileRead+0x1e4>
        Cluster = f->Cluster;  //11/20/2007, richard
 2041460:	e0bff917 	ldw	r2,-28(fp)
 2041464:	10800317 	ldw	r2,12(r2)
 2041468:	e0bff315 	stw	r2,-52(fp)
        // move to first clustor for reading
        while (Pos >= BytesPerCluster && bSuccess){
 204146c:	00001606 	br	20414c8 <Fat_FileRead+0x1d0>
            // go to next cluster
            NextCluster = fatNextCluster(pVol, Cluster); 
 2041470:	e13ffa17 	ldw	r4,-24(fp)
 2041474:	e17ff317 	ldw	r5,-52(fp)
 2041478:	2041c180 	call	2041c18 <fatNextCluster>
 204147c:	e0bffc15 	stw	r2,-16(fp)
            if (NextCluster == 0){
 2041480:	e0bffc17 	ldw	r2,-16(fp)
 2041484:	1000021e 	bne	r2,zero,2041490 <Fat_FileRead+0x198>
                bSuccess = FALSE;
 2041488:	e03ff715 	stw	zero,-36(fp)
 204148c:	00000206 	br	2041498 <Fat_FileRead+0x1a0>
                FAT_DEBUG(("[FAT] Fat_FileRead, no next Cluster, current Cluster=%d\r\n", Cluster));
            }else{
                Cluster = NextCluster;
 2041490:	e0bffc17 	ldw	r2,-16(fp)
 2041494:	e0bff315 	stw	r2,-52(fp)
            }        
            Pos -= BytesPerCluster;
 2041498:	e0fff117 	ldw	r3,-60(fp)
 204149c:	e0bffb17 	ldw	r2,-20(fp)
 20414a0:	1885c83a 	sub	r2,r3,r2
 20414a4:	e0bff115 	stw	r2,-60(fp)
            f->Cluster = Cluster;
 20414a8:	e0bff917 	ldw	r2,-28(fp)
 20414ac:	e0fff317 	ldw	r3,-52(fp)
 20414b0:	10c00315 	stw	r3,12(r2)
            f->ClusterSeq++; 
 20414b4:	e0bff917 	ldw	r2,-28(fp)
 20414b8:	10800417 	ldw	r2,16(r2)
 20414bc:	10c00044 	addi	r3,r2,1
 20414c0:	e0bff917 	ldw	r2,-28(fp)
 20414c4:	10c00415 	stw	r3,16(r2)
       
    Cluster = f->Cluster;
    if (nClusterSeq != f->ClusterSeq){
        Cluster = f->Cluster;  //11/20/2007, richard
        // move to first clustor for reading
        while (Pos >= BytesPerCluster && bSuccess){
 20414c8:	e0fff117 	ldw	r3,-60(fp)
 20414cc:	e0bffb17 	ldw	r2,-20(fp)
 20414d0:	18800236 	bltu	r3,r2,20414dc <Fat_FileRead+0x1e4>
 20414d4:	e0bff717 	ldw	r2,-36(fp)
 20414d8:	103fe51e 	bne	r2,zero,2041470 <__alt_data_end+0xfffc1470>
            f->ClusterSeq++; 
        }
    }            
    
    // reading
    while(nReadCount < nBufferSize && bSuccess){
 20414dc:	00008f06 	br	204171c <Fat_FileRead+0x424>
        if (pVol->BPB_SecPerCluster == 32)
 20414e0:	e0bffa17 	ldw	r2,-24(fp)
 20414e4:	10800717 	ldw	r2,28(r2)
 20414e8:	10800818 	cmpnei	r2,r2,32
 20414ec:	1000081e 	bne	r2,zero,2041510 <Fat_FileRead+0x218>
            PhysicalSecter = ((Cluster-2) << 5) + pVol->DataEntrySecter; // -2: FAT0 & FAT1 are reserved
 20414f0:	e0bff317 	ldw	r2,-52(fp)
 20414f4:	10bfff84 	addi	r2,r2,-2
 20414f8:	1006917a 	slli	r3,r2,5
 20414fc:	e0bffa17 	ldw	r2,-24(fp)
 2041500:	10800f17 	ldw	r2,60(r2)
 2041504:	1885883a 	add	r2,r3,r2
 2041508:	e0bff215 	stw	r2,-56(fp)
 204150c:	00001506 	br	2041564 <Fat_FileRead+0x26c>
        else if (pVol->BPB_SecPerCluster == 64)
 2041510:	e0bffa17 	ldw	r2,-24(fp)
 2041514:	10800717 	ldw	r2,28(r2)
 2041518:	10801018 	cmpnei	r2,r2,64
 204151c:	1000081e 	bne	r2,zero,2041540 <Fat_FileRead+0x248>
            PhysicalSecter = ((Cluster-2) << 6) + pVol->DataEntrySecter; // -2: FAT0 & FAT1 are reserved
 2041520:	e0bff317 	ldw	r2,-52(fp)
 2041524:	10bfff84 	addi	r2,r2,-2
 2041528:	100691ba 	slli	r3,r2,6
 204152c:	e0bffa17 	ldw	r2,-24(fp)
 2041530:	10800f17 	ldw	r2,60(r2)
 2041534:	1885883a 	add	r2,r3,r2
 2041538:	e0bff215 	stw	r2,-56(fp)
 204153c:	00000906 	br	2041564 <Fat_FileRead+0x26c>
        else
            PhysicalSecter = (Cluster-2)*pVol->BPB_SecPerCluster + pVol->DataEntrySecter; // -2: FAT0 & FAT1 are reserved
 2041540:	e0bff317 	ldw	r2,-52(fp)
 2041544:	10ffff84 	addi	r3,r2,-2
 2041548:	e0bffa17 	ldw	r2,-24(fp)
 204154c:	10800717 	ldw	r2,28(r2)
 2041550:	1887383a 	mul	r3,r3,r2
 2041554:	e0bffa17 	ldw	r2,-24(fp)
 2041558:	10800f17 	ldw	r2,60(r2)
 204155c:	1885883a 	add	r2,r3,r2
 2041560:	e0bff215 	stw	r2,-56(fp)
        for(s=0;s<pVol->BPB_SecPerCluster && nReadCount < nBufferSize && bSuccess;s++){
 2041564:	e03ff615 	stw	zero,-40(fp)
 2041568:	00004e06 	br	20416a4 <Fat_FileRead+0x3ac>
            if (Pos >= pVol->BPB_BytsPerSec){
 204156c:	e0bffa17 	ldw	r2,-24(fp)
 2041570:	10800617 	ldw	r2,24(r2)
 2041574:	e0fff117 	ldw	r3,-60(fp)
 2041578:	18800636 	bltu	r3,r2,2041594 <Fat_FileRead+0x29c>
                Pos -= pVol->BPB_BytsPerSec;
 204157c:	e0bffa17 	ldw	r2,-24(fp)
 2041580:	10800617 	ldw	r2,24(r2)
 2041584:	e0fff117 	ldw	r3,-60(fp)
 2041588:	1885c83a 	sub	r2,r3,r2
 204158c:	e0bff115 	stw	r2,-60(fp)
 2041590:	00003e06 	br	204168c <Fat_FileRead+0x394>
            }else{
                // read secter data
                bSuccess = fatReadSecter(pVol, PhysicalSecter);
 2041594:	e13ffa17 	ldw	r4,-24(fp)
 2041598:	e17ff217 	ldw	r5,-56(fp)
 204159c:	20424ec0 	call	20424ec <fatReadSecter>
 20415a0:	e0bff715 	stw	r2,-36(fp)
                
                if (bSuccess){
 20415a4:	e0bff717 	ldw	r2,-36(fp)
 20415a8:	10003826 	beq	r2,zero,204168c <Fat_FileRead+0x394>
                    // copy data to user buffer
                
                    int nCopyCount;
                    nCopyCount = pVol->BPB_BytsPerSec;
 20415ac:	e0bffa17 	ldw	r2,-24(fp)
 20415b0:	10800617 	ldw	r2,24(r2)
 20415b4:	e0bff815 	stw	r2,-32(fp)
                    if (Pos)
 20415b8:	e0bff117 	ldw	r2,-60(fp)
 20415bc:	10000426 	beq	r2,zero,20415d0 <Fat_FileRead+0x2d8>
                        nCopyCount -= Pos;
 20415c0:	e0fff817 	ldw	r3,-32(fp)
 20415c4:	e0bff117 	ldw	r2,-60(fp)
 20415c8:	1885c83a 	sub	r2,r3,r2
 20415cc:	e0bff815 	stw	r2,-32(fp)
                    if (nCopyCount > (nBufferSize-nReadCount))
 20415d0:	e0bff817 	ldw	r2,-32(fp)
 20415d4:	e13fff17 	ldw	r4,-4(fp)
 20415d8:	e0fff417 	ldw	r3,-48(fp)
 20415dc:	20c7c83a 	sub	r3,r4,r3
 20415e0:	1880042e 	bgeu	r3,r2,20415f4 <Fat_FileRead+0x2fc>
                        nCopyCount = nBufferSize-nReadCount;
 20415e4:	e0ffff17 	ldw	r3,-4(fp)
 20415e8:	e0bff417 	ldw	r2,-48(fp)
 20415ec:	1885c83a 	sub	r2,r3,r2
 20415f0:	e0bff815 	stw	r2,-32(fp)
                    if (nCopyCount == 512){
 20415f4:	e0bff817 	ldw	r2,-32(fp)
 20415f8:	10808018 	cmpnei	r2,r2,512
 20415fc:	1000111e 	bne	r2,zero,2041644 <Fat_FileRead+0x34c>
                        memcpy((char *)pBuffer+nReadCount, pVol->Secter_Data, 512);
 2041600:	e0fffe17 	ldw	r3,-8(fp)
 2041604:	e0bff417 	ldw	r2,-48(fp)
 2041608:	1887883a 	add	r3,r3,r2
 204160c:	e0bffa17 	ldw	r2,-24(fp)
 2041610:	10801004 	addi	r2,r2,64
 2041614:	1809883a 	mov	r4,r3
 2041618:	100b883a 	mov	r5,r2
 204161c:	01808004 	movi	r6,512
 2041620:	204870c0 	call	204870c <memcpy>
                        nReadCount += nCopyCount;
 2041624:	e0bff817 	ldw	r2,-32(fp)
 2041628:	e0fff417 	ldw	r3,-48(fp)
 204162c:	1885883a 	add	r2,r3,r2
 2041630:	e0bff415 	stw	r2,-48(fp)
                        if (Pos > 0)
 2041634:	e0bff117 	ldw	r2,-60(fp)
 2041638:	10001426 	beq	r2,zero,204168c <Fat_FileRead+0x394>
                            Pos = 0;
 204163c:	e03ff115 	stw	zero,-60(fp)
 2041640:	00001206 	br	204168c <Fat_FileRead+0x394>
                    }else{
                        memcpy((void *)((char *)pBuffer+nReadCount), pVol->Secter_Data+Pos,nCopyCount);
 2041644:	e0fffe17 	ldw	r3,-8(fp)
 2041648:	e0bff417 	ldw	r2,-48(fp)
 204164c:	1889883a 	add	r4,r3,r2
 2041650:	e0bff117 	ldw	r2,-60(fp)
 2041654:	10801004 	addi	r2,r2,64
 2041658:	e0fffa17 	ldw	r3,-24(fp)
 204165c:	1887883a 	add	r3,r3,r2
 2041660:	e0bff817 	ldw	r2,-32(fp)
 2041664:	180b883a 	mov	r5,r3
 2041668:	100d883a 	mov	r6,r2
 204166c:	204870c0 	call	204870c <memcpy>
                        nReadCount += nCopyCount;
 2041670:	e0bff817 	ldw	r2,-32(fp)
 2041674:	e0fff417 	ldw	r3,-48(fp)
 2041678:	1885883a 	add	r2,r3,r2
 204167c:	e0bff415 	stw	r2,-48(fp)
                        if (Pos > 0)
 2041680:	e0bff117 	ldw	r2,-60(fp)
 2041684:	10000126 	beq	r2,zero,204168c <Fat_FileRead+0x394>
                            Pos = 0;
 2041688:	e03ff115 	stw	zero,-60(fp)
                    }         
                }    // if bSuccess
                    
            }
            PhysicalSecter++;
 204168c:	e0bff217 	ldw	r2,-56(fp)
 2041690:	10800044 	addi	r2,r2,1
 2041694:	e0bff215 	stw	r2,-56(fp)
            PhysicalSecter = ((Cluster-2) << 5) + pVol->DataEntrySecter; // -2: FAT0 & FAT1 are reserved
        else if (pVol->BPB_SecPerCluster == 64)
            PhysicalSecter = ((Cluster-2) << 6) + pVol->DataEntrySecter; // -2: FAT0 & FAT1 are reserved
        else
            PhysicalSecter = (Cluster-2)*pVol->BPB_SecPerCluster + pVol->DataEntrySecter; // -2: FAT0 & FAT1 are reserved
        for(s=0;s<pVol->BPB_SecPerCluster && nReadCount < nBufferSize && bSuccess;s++){
 2041698:	e0bff617 	ldw	r2,-40(fp)
 204169c:	10800044 	addi	r2,r2,1
 20416a0:	e0bff615 	stw	r2,-40(fp)
 20416a4:	e0fff617 	ldw	r3,-40(fp)
 20416a8:	e0bffa17 	ldw	r2,-24(fp)
 20416ac:	10800717 	ldw	r2,28(r2)
 20416b0:	1880052e 	bgeu	r3,r2,20416c8 <Fat_FileRead+0x3d0>
 20416b4:	e0bfff17 	ldw	r2,-4(fp)
 20416b8:	e0fff417 	ldw	r3,-48(fp)
 20416bc:	1880022e 	bgeu	r3,r2,20416c8 <Fat_FileRead+0x3d0>
 20416c0:	e0bff717 	ldw	r2,-36(fp)
 20416c4:	103fa91e 	bne	r2,zero,204156c <__alt_data_end+0xfffc156c>
            }
            PhysicalSecter++;
        }    
            
        // next cluster
        if (nReadCount < nBufferSize){
 20416c8:	e0bfff17 	ldw	r2,-4(fp)
 20416cc:	e0fff417 	ldw	r3,-48(fp)
 20416d0:	1880122e 	bgeu	r3,r2,204171c <Fat_FileRead+0x424>
            NextCluster = fatNextCluster(pVol, Cluster); 
 20416d4:	e13ffa17 	ldw	r4,-24(fp)
 20416d8:	e17ff317 	ldw	r5,-52(fp)
 20416dc:	2041c180 	call	2041c18 <fatNextCluster>
 20416e0:	e0bffc15 	stw	r2,-16(fp)
            if (NextCluster == 0){
 20416e4:	e0bffc17 	ldw	r2,-16(fp)
 20416e8:	1000021e 	bne	r2,zero,20416f4 <Fat_FileRead+0x3fc>
                bSuccess = FALSE;
 20416ec:	e03ff715 	stw	zero,-36(fp)
 20416f0:	00000206 	br	20416fc <Fat_FileRead+0x404>
                FAT_DEBUG(("[FAT] Fat_FileRead, no next cluster\r\n"));
            }else{
                Cluster = NextCluster;
 20416f4:	e0bffc17 	ldw	r2,-16(fp)
 20416f8:	e0bff315 	stw	r2,-52(fp)
            }    
            //    
            f->ClusterSeq++; 
 20416fc:	e0bff917 	ldw	r2,-28(fp)
 2041700:	10800417 	ldw	r2,16(r2)
 2041704:	10c00044 	addi	r3,r2,1
 2041708:	e0bff917 	ldw	r2,-28(fp)
 204170c:	10c00415 	stw	r3,16(r2)
            f->Cluster = Cluster;
 2041710:	e0bff917 	ldw	r2,-28(fp)
 2041714:	e0fff317 	ldw	r3,-52(fp)
 2041718:	10c00315 	stw	r3,12(r2)
            f->ClusterSeq++; 
        }
    }            
    
    // reading
    while(nReadCount < nBufferSize && bSuccess){
 204171c:	e0bfff17 	ldw	r2,-4(fp)
 2041720:	e0fff417 	ldw	r3,-48(fp)
 2041724:	1880022e 	bgeu	r3,r2,2041730 <Fat_FileRead+0x438>
 2041728:	e0bff717 	ldw	r2,-36(fp)
 204172c:	103f6c1e 	bne	r2,zero,20414e0 <__alt_data_end+0xfffc14e0>
            f->ClusterSeq++; 
            f->Cluster = Cluster;
        }                    
    }
    
    if (bSuccess){
 2041730:	e0bff717 	ldw	r2,-36(fp)
 2041734:	10000626 	beq	r2,zero,2041750 <Fat_FileRead+0x458>
        f->SeekPos += nBufferSize;
 2041738:	e0bff917 	ldw	r2,-28(fp)
 204173c:	10c00217 	ldw	r3,8(r2)
 2041740:	e0bfff17 	ldw	r2,-4(fp)
 2041744:	1887883a 	add	r3,r3,r2
 2041748:	e0bff917 	ldw	r2,-28(fp)
 204174c:	10c00215 	stw	r3,8(r2)
    }        
        
    
    return bSuccess;
 2041750:	e0bff717 	ldw	r2,-36(fp)
}
 2041754:	e037883a 	mov	sp,fp
 2041758:	dfc00117 	ldw	ra,4(sp)
 204175c:	df000017 	ldw	fp,0(sp)
 2041760:	dec00204 	addi	sp,sp,8
 2041764:	f800283a 	ret

02041768 <Fat_FileSeek>:


bool Fat_FileSeek(FAT_FILE_HANDLE hFileHandle, const FAT_SEEK_POS SeekPos, const int nOffset){
 2041768:	defff904 	addi	sp,sp,-28
 204176c:	df000615 	stw	fp,24(sp)
 2041770:	df000604 	addi	fp,sp,24
 2041774:	e13ffd15 	stw	r4,-12(fp)
 2041778:	e17ffe15 	stw	r5,-8(fp)
 204177c:	e1bfff15 	stw	r6,-4(fp)
    FAT_FILE_INFO *f = (FAT_FILE_INFO *)hFileHandle;
 2041780:	e0bffd17 	ldw	r2,-12(fp)
 2041784:	e0bffb15 	stw	r2,-20(fp)
    VOLUME_INFO *pVol;
    bool bSuccess= TRUE;
 2041788:	00800044 	movi	r2,1
 204178c:	e0bffa15 	stw	r2,-24(fp)

    if (!f || !f->Fat)
 2041790:	e0bffb17 	ldw	r2,-20(fp)
 2041794:	10000326 	beq	r2,zero,20417a4 <Fat_FileSeek+0x3c>
 2041798:	e0bffb17 	ldw	r2,-20(fp)
 204179c:	10804f17 	ldw	r2,316(r2)
 20417a0:	1000021e 	bne	r2,zero,20417ac <Fat_FileSeek+0x44>
        return FALSE;
 20417a4:	0005883a 	mov	r2,zero
 20417a8:	00002b06 	br	2041858 <Fat_FileSeek+0xf0>
    pVol = (VOLUME_INFO *)f->Fat;        
 20417ac:	e0bffb17 	ldw	r2,-20(fp)
 20417b0:	10804f17 	ldw	r2,316(r2)
 20417b4:	e0bffc15 	stw	r2,-16(fp)
    
    if (!f->IsOpened)
 20417b8:	e0bffb17 	ldw	r2,-20(fp)
 20417bc:	10800017 	ldw	r2,0(r2)
 20417c0:	1000021e 	bne	r2,zero,20417cc <Fat_FileSeek+0x64>
        return FALSE;
 20417c4:	0005883a 	mov	r2,zero
 20417c8:	00002306 	br	2041858 <Fat_FileSeek+0xf0>
        
    switch(SeekPos){
 20417cc:	e0bffe17 	ldw	r2,-8(fp)
 20417d0:	10c00060 	cmpeqi	r3,r2,1
 20417d4:	1800081e 	bne	r3,zero,20417f8 <Fat_FileSeek+0x90>
 20417d8:	0080032e 	bgeu	zero,r2,20417e8 <Fat_FileSeek+0x80>
 20417dc:	108000a0 	cmpeqi	r2,r2,2
 20417e0:	10000c1e 	bne	r2,zero,2041814 <Fat_FileSeek+0xac>
 20417e4:	00001206 	br	2041830 <Fat_FileSeek+0xc8>
        case FILE_SEEK_BEGIN: 
            f->SeekPos = nOffset; 
 20417e8:	e0ffff17 	ldw	r3,-4(fp)
 20417ec:	e0bffb17 	ldw	r2,-20(fp)
 20417f0:	10c00215 	stw	r3,8(r2)
            break;
 20417f4:	00001006 	br	2041838 <Fat_FileSeek+0xd0>
        case FILE_SEEK_CURRENT: 
            f->SeekPos += nOffset; 
 20417f8:	e0bffb17 	ldw	r2,-20(fp)
 20417fc:	10c00217 	ldw	r3,8(r2)
 2041800:	e0bfff17 	ldw	r2,-4(fp)
 2041804:	1887883a 	add	r3,r3,r2
 2041808:	e0bffb17 	ldw	r2,-20(fp)
 204180c:	10c00215 	stw	r3,8(r2)
            break;
 2041810:	00000906 	br	2041838 <Fat_FileSeek+0xd0>
        case FILE_SEEK_END: 
            f->SeekPos = f->Directory.FileSize+nOffset; 
 2041814:	e0bffb17 	ldw	r2,-20(fp)
 2041818:	10c04e17 	ldw	r3,312(r2)
 204181c:	e0bfff17 	ldw	r2,-4(fp)
 2041820:	1887883a 	add	r3,r3,r2
 2041824:	e0bffb17 	ldw	r2,-20(fp)
 2041828:	10c00215 	stw	r3,8(r2)
            break;
 204182c:	00000206 	br	2041838 <Fat_FileSeek+0xd0>
        default:
            bSuccess = FALSE;
 2041830:	e03ffa15 	stw	zero,-24(fp)
            break;    
 2041834:	0001883a 	nop
              
    }
    f->Cluster = f->Directory.FirstLogicalCluster;
 2041838:	e0bffb17 	ldw	r2,-20(fp)
 204183c:	10804d8b 	ldhu	r2,310(r2)
 2041840:	10ffffcc 	andi	r3,r2,65535
 2041844:	e0bffb17 	ldw	r2,-20(fp)
 2041848:	10c00315 	stw	r3,12(r2)
    f->ClusterSeq = 0;
 204184c:	e0bffb17 	ldw	r2,-20(fp)
 2041850:	10000415 	stw	zero,16(r2)
    
    return bSuccess;
 2041854:	e0bffa17 	ldw	r2,-24(fp)
    
}
 2041858:	e037883a 	mov	sp,fp
 204185c:	df000017 	ldw	fp,0(sp)
 2041860:	dec00104 	addi	sp,sp,4
 2041864:	f800283a 	ret

02041868 <Fat_FileClose>:

void Fat_FileClose(FAT_FILE_HANDLE hFileHandle){
 2041868:	defffc04 	addi	sp,sp,-16
 204186c:	dfc00315 	stw	ra,12(sp)
 2041870:	df000215 	stw	fp,8(sp)
 2041874:	df000204 	addi	fp,sp,8
 2041878:	e13fff15 	stw	r4,-4(fp)
    FAT_FILE_INFO *f = (FAT_FILE_INFO *)hFileHandle;
 204187c:	e0bfff17 	ldw	r2,-4(fp)
 2041880:	e0bffe15 	stw	r2,-8(fp)
    if (!f)
 2041884:	e0bffe17 	ldw	r2,-8(fp)
 2041888:	1000011e 	bne	r2,zero,2041890 <Fat_FileClose+0x28>
        return;
 204188c:	00000206 	br	2041898 <Fat_FileClose+0x30>
        
    free(f);        
 2041890:	e13ffe17 	ldw	r4,-8(fp)
 2041894:	2047f500 	call	2047f50 <free>
}
 2041898:	e037883a 	mov	sp,fp
 204189c:	dfc00117 	ldw	ra,4(sp)
 20418a0:	df000017 	ldw	fp,0(sp)
 20418a4:	dec00204 	addi	sp,sp,8
 20418a8:	f800283a 	ret

020418ac <Fat_SpeedTest>:



float Fat_SpeedTest(FAT_HANDLE hFat, alt_u32 TestDurInMs){
 20418ac:	deff7304 	addi	sp,sp,-564
 20418b0:	dfc08c15 	stw	ra,560(sp)
 20418b4:	df008b15 	stw	fp,556(sp)
 20418b8:	dc008a15 	stw	r16,552(sp)
 20418bc:	df008b04 	addi	fp,sp,556
 20418c0:	e13ffd15 	stw	r4,-12(fp)
 20418c4:	e17ffe15 	stw	r5,-8(fp)
    bool bSuccess = TRUE;
 20418c8:	00800044 	movi	r2,1
 20418cc:	e0bf7515 	stw	r2,-556(fp)
    alt_u32 time_start, time_finish, time_elapsed, TotalReadBytes=0;
 20418d0:	e03f7615 	stw	zero,-552(fp)
    int nSecter = 0;
 20418d4:	e03f7715 	stw	zero,-548(fp)
    float fMegaBytePerSec = 0;
 20418d8:	e03f7815 	stw	zero,-544(fp)
    char szBlock[512];
    VOLUME_INFO *pVol = (VOLUME_INFO *)hFat;
 20418dc:	e0bffd17 	ldw	r2,-12(fp)
 20418e0:	e0bf7915 	stw	r2,-540(fp)
    if (!pVol)
 20418e4:	e0bf7917 	ldw	r2,-540(fp)
 20418e8:	1000021e 	bne	r2,zero,20418f4 <Fat_SpeedTest+0x48>
        return 0;
 20418ec:	0005883a 	mov	r2,zero
 20418f0:	00006206 	br	2041a7c <Fat_SpeedTest+0x1d0>
 * alt_nticks() returns the elapsed number of system clock ticks since reset.
 */

static ALT_INLINE alt_u32 ALT_ALWAYS_INLINE alt_nticks (void)
{
  return _alt_nticks;
 20418f4:	008081b4 	movhi	r2,518
 20418f8:	10991804 	addi	r2,r2,25696
 20418fc:	10800017 	ldw	r2,0(r2)
    time_start = alt_nticks();
 2041900:	e0bf7a15 	stw	r2,-536(fp)
 2041904:	008081b4 	movhi	r2,518
 2041908:	10991804 	addi	r2,r2,25696
 204190c:	14000017 	ldw	r16,0(r2)
    time_finish = alt_nticks() + TestDurInMs * 1000 / alt_ticks_per_second();
 2041910:	e0bffe17 	ldw	r2,-8(fp)
 2041914:	10c0fa24 	muli	r3,r2,1000
 * Obtain the system clock rate in ticks/s. 
 */

static ALT_INLINE alt_u32 ALT_ALWAYS_INLINE alt_ticks_per_second (void)
{
  return _alt_tick_rate;
 2041918:	008081b4 	movhi	r2,518
 204191c:	10991704 	addi	r2,r2,25692
 2041920:	10800017 	ldw	r2,0(r2)
 2041924:	1809883a 	mov	r4,r3
 2041928:	100b883a 	mov	r5,r2
 204192c:	20454a00 	call	20454a0 <__udivsi3>
 2041930:	8085883a 	add	r2,r16,r2
 2041934:	e0bf7b15 	stw	r2,-532(fp)
    while(alt_nticks() < time_finish && bSuccess){
 2041938:	00000f06 	br	2041978 <Fat_SpeedTest+0xcc>
        bSuccess = pVol->ReadBlock512(pVol->DiskHandle, nSecter, szBlock);
 204193c:	e0bf7917 	ldw	r2,-540(fp)
 2041940:	10800117 	ldw	r2,4(r2)
 2041944:	e0ff7917 	ldw	r3,-540(fp)
 2041948:	19000017 	ldw	r4,0(r3)
 204194c:	e17f7717 	ldw	r5,-548(fp)
 2041950:	e0ff7d04 	addi	r3,fp,-524
 2041954:	180d883a 	mov	r6,r3
 2041958:	103ee83a 	callr	r2
 204195c:	e0bf7515 	stw	r2,-556(fp)
        nSecter++;
 2041960:	e0bf7717 	ldw	r2,-548(fp)
 2041964:	10800044 	addi	r2,r2,1
 2041968:	e0bf7715 	stw	r2,-548(fp)
        TotalReadBytes += sizeof(szBlock);
 204196c:	e0bf7617 	ldw	r2,-552(fp)
 2041970:	10808004 	addi	r2,r2,512
 2041974:	e0bf7615 	stw	r2,-552(fp)
 * alt_nticks() returns the elapsed number of system clock ticks since reset.
 */

static ALT_INLINE alt_u32 ALT_ALWAYS_INLINE alt_nticks (void)
{
  return _alt_nticks;
 2041978:	008081b4 	movhi	r2,518
 204197c:	10991804 	addi	r2,r2,25696
 2041980:	10c00017 	ldw	r3,0(r2)
    VOLUME_INFO *pVol = (VOLUME_INFO *)hFat;
    if (!pVol)
        return 0;
    time_start = alt_nticks();
    time_finish = alt_nticks() + TestDurInMs * 1000 / alt_ticks_per_second();
    while(alt_nticks() < time_finish && bSuccess){
 2041984:	e0bf7b17 	ldw	r2,-532(fp)
 2041988:	1880022e 	bgeu	r3,r2,2041994 <Fat_SpeedTest+0xe8>
 204198c:	e0bf7517 	ldw	r2,-556(fp)
 2041990:	103fea1e 	bne	r2,zero,204193c <__alt_data_end+0xfffc193c>
        bSuccess = pVol->ReadBlock512(pVol->DiskHandle, nSecter, szBlock);
        nSecter++;
        TotalReadBytes += sizeof(szBlock);
        
    }        
    if (bSuccess){
 2041994:	e0bf7517 	ldw	r2,-556(fp)
 2041998:	10003726 	beq	r2,zero,2041a78 <Fat_SpeedTest+0x1cc>
 204199c:	008081b4 	movhi	r2,518
 20419a0:	10991804 	addi	r2,r2,25696
 20419a4:	10c00017 	ldw	r3,0(r2)
        time_elapsed = alt_nticks() - time_start;
 20419a8:	e0bf7a17 	ldw	r2,-536(fp)
 20419ac:	1885c83a 	sub	r2,r3,r2
 20419b0:	e0bf7c15 	stw	r2,-528(fp)
        fMegaBytePerSec = (float)TotalReadBytes * (float)alt_ticks_per_second() / (float)time_elapsed / 1024.0 / 1024.0;
 20419b4:	e13f7617 	ldw	r4,-552(fp)
 20419b8:	2045d240 	call	2045d24 <__floatunsisf>
 20419bc:	1021883a 	mov	r16,r2
 * Obtain the system clock rate in ticks/s. 
 */

static ALT_INLINE alt_u32 ALT_ALWAYS_INLINE alt_ticks_per_second (void)
{
  return _alt_tick_rate;
 20419c0:	008081b4 	movhi	r2,518
 20419c4:	10991704 	addi	r2,r2,25692
 20419c8:	10800017 	ldw	r2,0(r2)
 20419cc:	1009883a 	mov	r4,r2
 20419d0:	2045d240 	call	2045d24 <__floatunsisf>
 20419d4:	1007883a 	mov	r3,r2
 20419d8:	8009883a 	mov	r4,r16
 20419dc:	180b883a 	mov	r5,r3
 20419e0:	20459000 	call	2045900 <__mulsf3>
 20419e4:	1007883a 	mov	r3,r2
 20419e8:	1821883a 	mov	r16,r3
 20419ec:	e13f7c17 	ldw	r4,-528(fp)
 20419f0:	2045d240 	call	2045d24 <__floatunsisf>
 20419f4:	1007883a 	mov	r3,r2
 20419f8:	8009883a 	mov	r4,r16
 20419fc:	180b883a 	mov	r5,r3
 2041a00:	20454b00 	call	20454b0 <__divsf3>
 2041a04:	1007883a 	mov	r3,r2
 2041a08:	1805883a 	mov	r2,r3
 2041a0c:	1009883a 	mov	r4,r2
 2041a10:	20467000 	call	2046700 <__extendsfdf2>
 2041a14:	100b883a 	mov	r5,r2
 2041a18:	180d883a 	mov	r6,r3
 2041a1c:	2809883a 	mov	r4,r5
 2041a20:	300b883a 	mov	r5,r6
 2041a24:	000d883a 	mov	r6,zero
 2041a28:	01d02434 	movhi	r7,16528
 2041a2c:	2045e340 	call	2045e34 <__divdf3>
 2041a30:	1009883a 	mov	r4,r2
 2041a34:	180b883a 	mov	r5,r3
 2041a38:	2005883a 	mov	r2,r4
 2041a3c:	2807883a 	mov	r3,r5
 2041a40:	1009883a 	mov	r4,r2
 2041a44:	180b883a 	mov	r5,r3
 2041a48:	000d883a 	mov	r6,zero
 2041a4c:	01d02434 	movhi	r7,16528
 2041a50:	2045e340 	call	2045e34 <__divdf3>
 2041a54:	1009883a 	mov	r4,r2
 2041a58:	180b883a 	mov	r5,r3
 2041a5c:	2005883a 	mov	r2,r4
 2041a60:	2807883a 	mov	r3,r5
 2041a64:	1009883a 	mov	r4,r2
 2041a68:	180b883a 	mov	r5,r3
 2041a6c:	20468100 	call	2046810 <__truncdfsf2>
 2041a70:	1007883a 	mov	r3,r2
 2041a74:	e0ff7815 	stw	r3,-544(fp)
    }        
    return fMegaBytePerSec;
 2041a78:	e0bf7817 	ldw	r2,-544(fp)
 2041a7c:	1007883a 	mov	r3,r2
    
   
}
 2041a80:	1805883a 	mov	r2,r3
 2041a84:	e6ffff04 	addi	sp,fp,-4
 2041a88:	dfc00217 	ldw	ra,8(sp)
 2041a8c:	df000117 	ldw	fp,4(sp)
 2041a90:	dc000017 	ldw	r16,0(sp)
 2041a94:	dec00304 	addi	sp,sp,12
 2041a98:	f800283a 	ret

02041a9c <fat16ClusterType>:
//extern VOLUME_INFO gVolumeInfo;




CLUSTER_TYPE fat16ClusterType(alt_u32 Fat){
 2041a9c:	defffd04 	addi	sp,sp,-12
 2041aa0:	df000215 	stw	fp,8(sp)
 2041aa4:	df000204 	addi	fp,sp,8
 2041aa8:	e13fff15 	stw	r4,-4(fp)
    CLUSTER_TYPE Type;
    Fat = Fat & 0xFFFF; // 16 bits
 2041aac:	e0bfff17 	ldw	r2,-4(fp)
 2041ab0:	10bfffcc 	andi	r2,r2,65535
 2041ab4:	e0bfff15 	stw	r2,-4(fp)
    
    if (Fat > 0 && Fat < 0xFFF0)
 2041ab8:	e0bfff17 	ldw	r2,-4(fp)
 2041abc:	10000626 	beq	r2,zero,2041ad8 <fat16ClusterType+0x3c>
 2041ac0:	e0bfff17 	ldw	r2,-4(fp)
 2041ac4:	10bffc28 	cmpgeui	r2,r2,65520
 2041ac8:	1000031e 	bne	r2,zero,2041ad8 <fat16ClusterType+0x3c>
        Type = CLUSTER_NEXT_INFILE;
 2041acc:	00800104 	movi	r2,4
 2041ad0:	e0bffe15 	stw	r2,-8(fp)
 2041ad4:	00001806 	br	2041b38 <fat16ClusterType+0x9c>
    else if (Fat >= 0xFFF8) // && Fat <= (unsigned short)0xFFFF)
 2041ad8:	e0bfff17 	ldw	r2,-4(fp)
 2041adc:	10bffe30 	cmpltui	r2,r2,65528
 2041ae0:	1000031e 	bne	r2,zero,2041af0 <fat16ClusterType+0x54>
        Type = CLUSTER_LAST_INFILE;
 2041ae4:	008000c4 	movi	r2,3
 2041ae8:	e0bffe15 	stw	r2,-8(fp)
 2041aec:	00001206 	br	2041b38 <fat16ClusterType+0x9c>
    else if (Fat == (alt_u16)0x00)
 2041af0:	e0bfff17 	ldw	r2,-4(fp)
 2041af4:	1000021e 	bne	r2,zero,2041b00 <fat16ClusterType+0x64>
        Type = CLUSTER_UNUSED;
 2041af8:	e03ffe15 	stw	zero,-8(fp)
 2041afc:	00000e06 	br	2041b38 <fat16ClusterType+0x9c>
    else if (Fat >= 0xFFF0 && Fat <= 0xFFF6)
 2041b00:	e0bfff17 	ldw	r2,-4(fp)
 2041b04:	10bffc30 	cmpltui	r2,r2,65520
 2041b08:	1000061e 	bne	r2,zero,2041b24 <fat16ClusterType+0x88>
 2041b0c:	e0bfff17 	ldw	r2,-4(fp)
 2041b10:	10bffde8 	cmpgeui	r2,r2,65527
 2041b14:	1000031e 	bne	r2,zero,2041b24 <fat16ClusterType+0x88>
        Type = CLUSTER_RESERVED;
 2041b18:	00800044 	movi	r2,1
 2041b1c:	e0bffe15 	stw	r2,-8(fp)
 2041b20:	00000506 	br	2041b38 <fat16ClusterType+0x9c>
    else if (Fat == 0xFFF7)
 2041b24:	e0ffff17 	ldw	r3,-4(fp)
 2041b28:	00bffdd4 	movui	r2,65527
 2041b2c:	1880021e 	bne	r3,r2,2041b38 <fat16ClusterType+0x9c>
        Type = CLUSTER_BAD;
 2041b30:	00800084 	movi	r2,2
 2041b34:	e0bffe15 	stw	r2,-8(fp)
        
    return Type;        
 2041b38:	e0bffe17 	ldw	r2,-8(fp)
         
}
 2041b3c:	e037883a 	mov	sp,fp
 2041b40:	df000017 	ldw	fp,0(sp)
 2041b44:	dec00104 	addi	sp,sp,4
 2041b48:	f800283a 	ret

02041b4c <fat32ClusterType>:

CLUSTER_TYPE fat32ClusterType(alt_u32 Fat){
 2041b4c:	defffd04 	addi	sp,sp,-12
 2041b50:	df000215 	stw	fp,8(sp)
 2041b54:	df000204 	addi	fp,sp,8
 2041b58:	e13fff15 	stw	r4,-4(fp)
    CLUSTER_TYPE Type;
    Fat = Fat & 0xFFFFFFF; // 28 bits
 2041b5c:	e0ffff17 	ldw	r3,-4(fp)
 2041b60:	00840034 	movhi	r2,4096
 2041b64:	10bfffc4 	addi	r2,r2,-1
 2041b68:	1884703a 	and	r2,r3,r2
 2041b6c:	e0bfff15 	stw	r2,-4(fp)
    
    if (Fat > 0 && Fat < 0xFFFFFF0)
 2041b70:	e0bfff17 	ldw	r2,-4(fp)
 2041b74:	10000726 	beq	r2,zero,2041b94 <fat32ClusterType+0x48>
 2041b78:	e0ffff17 	ldw	r3,-4(fp)
 2041b7c:	00840034 	movhi	r2,4096
 2041b80:	10bffbc4 	addi	r2,r2,-17
 2041b84:	10c00336 	bltu	r2,r3,2041b94 <fat32ClusterType+0x48>
        Type = CLUSTER_NEXT_INFILE;
 2041b88:	00800104 	movi	r2,4
 2041b8c:	e0bffe15 	stw	r2,-8(fp)
 2041b90:	00001c06 	br	2041c04 <fat32ClusterType+0xb8>
    else if (Fat >= 0xFFFFFF8) // && Fat <= (unsigned short)0xFFFF)
 2041b94:	e0ffff17 	ldw	r3,-4(fp)
 2041b98:	00840034 	movhi	r2,4096
 2041b9c:	10bffdc4 	addi	r2,r2,-9
 2041ba0:	10c0032e 	bgeu	r2,r3,2041bb0 <fat32ClusterType+0x64>
        Type = CLUSTER_LAST_INFILE;
 2041ba4:	008000c4 	movi	r2,3
 2041ba8:	e0bffe15 	stw	r2,-8(fp)
 2041bac:	00001506 	br	2041c04 <fat32ClusterType+0xb8>
    else if (Fat == (alt_u32)0x00)
 2041bb0:	e0bfff17 	ldw	r2,-4(fp)
 2041bb4:	1000021e 	bne	r2,zero,2041bc0 <fat32ClusterType+0x74>
        Type = CLUSTER_UNUSED;
 2041bb8:	e03ffe15 	stw	zero,-8(fp)
 2041bbc:	00001106 	br	2041c04 <fat32ClusterType+0xb8>
    else if (Fat >= 0xFFFFFF0 && Fat <= 0xFFFFFF6)
 2041bc0:	e0ffff17 	ldw	r3,-4(fp)
 2041bc4:	00840034 	movhi	r2,4096
 2041bc8:	10bffbc4 	addi	r2,r2,-17
 2041bcc:	10c0072e 	bgeu	r2,r3,2041bec <fat32ClusterType+0xa0>
 2041bd0:	e0ffff17 	ldw	r3,-4(fp)
 2041bd4:	00840034 	movhi	r2,4096
 2041bd8:	10bffd84 	addi	r2,r2,-10
 2041bdc:	10c00336 	bltu	r2,r3,2041bec <fat32ClusterType+0xa0>
        Type = CLUSTER_RESERVED;
 2041be0:	00800044 	movi	r2,1
 2041be4:	e0bffe15 	stw	r2,-8(fp)
 2041be8:	00000606 	br	2041c04 <fat32ClusterType+0xb8>
    else if (Fat == 0xFFFFFF7)
 2041bec:	e0ffff17 	ldw	r3,-4(fp)
 2041bf0:	00840034 	movhi	r2,4096
 2041bf4:	10bffdc4 	addi	r2,r2,-9
 2041bf8:	1880021e 	bne	r3,r2,2041c04 <fat32ClusterType+0xb8>
        Type = CLUSTER_BAD;
 2041bfc:	00800084 	movi	r2,2
 2041c00:	e0bffe15 	stw	r2,-8(fp)
        
    return Type;        
 2041c04:	e0bffe17 	ldw	r2,-8(fp)
         
}
 2041c08:	e037883a 	mov	sp,fp
 2041c0c:	df000017 	ldw	fp,0(sp)
 2041c10:	dec00104 	addi	sp,sp,4
 2041c14:	f800283a 	ret

02041c18 <fatNextCluster>:

alt_u32 fatNextCluster(VOLUME_INFO *pVol, alt_u32 ThisCluster){
 2041c18:	defff604 	addi	sp,sp,-40
 2041c1c:	dfc00915 	stw	ra,36(sp)
 2041c20:	df000815 	stw	fp,32(sp)
 2041c24:	dc000715 	stw	r16,28(sp)
 2041c28:	df000804 	addi	fp,sp,32
 2041c2c:	e13ffd15 	stw	r4,-12(fp)
 2041c30:	e17ffe15 	stw	r5,-8(fp)
    if (ClusterType != CLUSTER_NEXT_INFILE && ClusterType != CLUSTER_LAST_INFILE){
        NextCluster = 0;  // invalid cluster
    }        
#else
    alt_32 nFatEntryPerSecter;
    const alt_32 nFatEntrySize = (pVol->Partition_Type == PARTITION_FAT32)?4:2; // 2 byte for FAT16
 2041c34:	e0bffd17 	ldw	r2,-12(fp)
 2041c38:	10800317 	ldw	r2,12(r2)
 2041c3c:	108002d8 	cmpnei	r2,r2,11
 2041c40:	1000021e 	bne	r2,zero,2041c4c <fatNextCluster+0x34>
 2041c44:	00800104 	movi	r2,4
 2041c48:	00000106 	br	2041c50 <fatNextCluster+0x38>
 2041c4c:	00800084 	movi	r2,2
 2041c50:	e0bffa15 	stw	r2,-24(fp)
    alt_u32 Secter;
   // char szBlock[512];
    nFatEntryPerSecter = pVol->BPB_BytsPerSec/nFatEntrySize; 
 2041c54:	e0bffd17 	ldw	r2,-12(fp)
 2041c58:	10c00617 	ldw	r3,24(r2)
 2041c5c:	e0bffa17 	ldw	r2,-24(fp)
 2041c60:	1809883a 	mov	r4,r3
 2041c64:	100b883a 	mov	r5,r2
 2041c68:	20454a00 	call	20454a0 <__udivsi3>
 2041c6c:	e0bffb15 	stw	r2,-20(fp)
    Secter = pVol->FatEntrySecter + (ThisCluster*nFatEntrySize)/pVol->BPB_BytsPerSec;
 2041c70:	e0bffd17 	ldw	r2,-12(fp)
 2041c74:	14000d17 	ldw	r16,52(r2)
 2041c78:	e0fffa17 	ldw	r3,-24(fp)
 2041c7c:	e0bffe17 	ldw	r2,-8(fp)
 2041c80:	1887383a 	mul	r3,r3,r2
 2041c84:	e0bffd17 	ldw	r2,-12(fp)
 2041c88:	10800617 	ldw	r2,24(r2)
 2041c8c:	1809883a 	mov	r4,r3
 2041c90:	100b883a 	mov	r5,r2
 2041c94:	20454a00 	call	20454a0 <__udivsi3>
 2041c98:	8085883a 	add	r2,r16,r2
 2041c9c:	e0bffc15 	stw	r2,-16(fp)
    //if (pVol->ReadBlock512(pVol->DiskHandle, Secter,szBlock)){
    if (fatReadSecter(pVol, Secter)){
 2041ca0:	e13ffd17 	ldw	r4,-12(fp)
 2041ca4:	e17ffc17 	ldw	r5,-16(fp)
 2041ca8:	20424ec0 	call	20424ec <fatReadSecter>
 2041cac:	10002d26 	beq	r2,zero,2041d64 <fatNextCluster+0x14c>
        if (pVol->Partition_Type == PARTITION_FAT32){
 2041cb0:	e0bffd17 	ldw	r2,-12(fp)
 2041cb4:	10800317 	ldw	r2,12(r2)
 2041cb8:	108002d8 	cmpnei	r2,r2,11
 2041cbc:	1000111e 	bne	r2,zero,2041d04 <fatNextCluster+0xec>
            NextCluster = *(alt_u32*)(pVol->Secter_Data + (ThisCluster%nFatEntryPerSecter)*nFatEntrySize); 
 2041cc0:	e0bffb17 	ldw	r2,-20(fp)
 2041cc4:	e0fffe17 	ldw	r3,-8(fp)
 2041cc8:	1809883a 	mov	r4,r3
 2041ccc:	100b883a 	mov	r5,r2
 2041cd0:	20454a80 	call	20454a8 <__umodsi3>
 2041cd4:	1007883a 	mov	r3,r2
 2041cd8:	e0bffa17 	ldw	r2,-24(fp)
 2041cdc:	1885383a 	mul	r2,r3,r2
 2041ce0:	10801004 	addi	r2,r2,64
 2041ce4:	e0fffd17 	ldw	r3,-12(fp)
 2041ce8:	1885883a 	add	r2,r3,r2
 2041cec:	10800017 	ldw	r2,0(r2)
 2041cf0:	e0bff915 	stw	r2,-28(fp)
            ClusterType = fat32ClusterType(NextCluster);
 2041cf4:	e13ff917 	ldw	r4,-28(fp)
 2041cf8:	2041b4c0 	call	2041b4c <fat32ClusterType>
 2041cfc:	e0bff815 	stw	r2,-32(fp)
 2041d00:	00001106 	br	2041d48 <fatNextCluster+0x130>
        }else{
            NextCluster = *(alt_u16 *)(pVol->Secter_Data + (ThisCluster%nFatEntryPerSecter)*nFatEntrySize); 
 2041d04:	e0bffb17 	ldw	r2,-20(fp)
 2041d08:	e0fffe17 	ldw	r3,-8(fp)
 2041d0c:	1809883a 	mov	r4,r3
 2041d10:	100b883a 	mov	r5,r2
 2041d14:	20454a80 	call	20454a8 <__umodsi3>
 2041d18:	1007883a 	mov	r3,r2
 2041d1c:	e0bffa17 	ldw	r2,-24(fp)
 2041d20:	1885383a 	mul	r2,r3,r2
 2041d24:	10801004 	addi	r2,r2,64
 2041d28:	e0fffd17 	ldw	r3,-12(fp)
 2041d2c:	1885883a 	add	r2,r3,r2
 2041d30:	1080000b 	ldhu	r2,0(r2)
 2041d34:	10bfffcc 	andi	r2,r2,65535
 2041d38:	e0bff915 	stw	r2,-28(fp)
            ClusterType = fat16ClusterType(NextCluster);
 2041d3c:	e13ff917 	ldw	r4,-28(fp)
 2041d40:	2041a9c0 	call	2041a9c <fat16ClusterType>
 2041d44:	e0bff815 	stw	r2,-32(fp)
        }    
        if (ClusterType != CLUSTER_NEXT_INFILE && ClusterType != CLUSTER_LAST_INFILE)
 2041d48:	e0bff817 	ldw	r2,-32(fp)
 2041d4c:	10800120 	cmpeqi	r2,r2,4
 2041d50:	1000041e 	bne	r2,zero,2041d64 <fatNextCluster+0x14c>
 2041d54:	e0bff817 	ldw	r2,-32(fp)
 2041d58:	108000e0 	cmpeqi	r2,r2,3
 2041d5c:	1000011e 	bne	r2,zero,2041d64 <fatNextCluster+0x14c>
            NextCluster = 0;  // invalid cluster
 2041d60:	e03ff915 	stw	zero,-28(fp)
    }                
    
    
    return NextCluster;
 2041d64:	e0bff917 	ldw	r2,-28(fp)

#endif    
    
    return NextCluster;
}
 2041d68:	e6ffff04 	addi	sp,fp,-4
 2041d6c:	dfc00217 	ldw	ra,8(sp)
 2041d70:	df000117 	ldw	fp,4(sp)
 2041d74:	dc000017 	ldw	r16,0(sp)
 2041d78:	dec00304 	addi	sp,sp,12
 2041d7c:	f800283a 	ret

02041d80 <fatFindUnusedCluster>:

alt_u32 fatFindUnusedCluster(VOLUME_INFO *pVol){
 2041d80:	defff304 	addi	sp,sp,-52
 2041d84:	dfc00c15 	stw	ra,48(sp)
 2041d88:	df000b15 	stw	fp,44(sp)
 2041d8c:	dc000a15 	stw	r16,40(sp)
 2041d90:	df000b04 	addi	fp,sp,44
 2041d94:	e13ffe15 	stw	r4,-8(fp)
    CLUSTER_TYPE ClusterType;
    alt_u32 UnusedCluster=-1, ThisCluster = 2, ClusterEntryValue;
 2041d98:	00bfffc4 	movi	r2,-1
 2041d9c:	e0bff615 	stw	r2,-40(fp)
 2041da0:	00800084 	movi	r2,2
 2041da4:	e0bff715 	stw	r2,-36(fp)
    void *pFatEntry;

    const alt_32 nFatEntrySize = (pVol->Partition_Type == PARTITION_FAT32)?4:2; // 2 byte for FAT16
 2041da8:	e0bffe17 	ldw	r2,-8(fp)
 2041dac:	10800317 	ldw	r2,12(r2)
 2041db0:	108002d8 	cmpnei	r2,r2,11
 2041db4:	1000021e 	bne	r2,zero,2041dc0 <fatFindUnusedCluster+0x40>
 2041db8:	00800104 	movi	r2,4
 2041dbc:	00000106 	br	2041dc4 <fatFindUnusedCluster+0x44>
 2041dc0:	00800084 	movi	r2,2
 2041dc4:	e0bff915 	stw	r2,-28(fp)
    const alt_32 nFatEntryPerSecter = pVol->BPB_BytsPerSec/nFatEntrySize;
 2041dc8:	e0bffe17 	ldw	r2,-8(fp)
 2041dcc:	10c00617 	ldw	r3,24(r2)
 2041dd0:	e0bff917 	ldw	r2,-28(fp)
 2041dd4:	1809883a 	mov	r4,r3
 2041dd8:	100b883a 	mov	r5,r2
 2041ddc:	20454a00 	call	20454a0 <__udivsi3>
 2041de0:	e0bffa15 	stw	r2,-24(fp)
    alt_u32 Secter;
    bool bDone = FALSE;
 2041de4:	e03ff815 	stw	zero,-32(fp)

    while(!bDone){     
 2041de8:	00003a06 	br	2041ed4 <fatFindUnusedCluster+0x154>
        Secter = pVol->FatEntrySecter + (ThisCluster*nFatEntrySize)/pVol->BPB_BytsPerSec;
 2041dec:	e0bffe17 	ldw	r2,-8(fp)
 2041df0:	14000d17 	ldw	r16,52(r2)
 2041df4:	e0fff917 	ldw	r3,-28(fp)
 2041df8:	e0bff717 	ldw	r2,-36(fp)
 2041dfc:	1887383a 	mul	r3,r3,r2
 2041e00:	e0bffe17 	ldw	r2,-8(fp)
 2041e04:	10800617 	ldw	r2,24(r2)
 2041e08:	1809883a 	mov	r4,r3
 2041e0c:	100b883a 	mov	r5,r2
 2041e10:	20454a00 	call	20454a0 <__udivsi3>
 2041e14:	8085883a 	add	r2,r16,r2
 2041e18:	e0bffb15 	stw	r2,-20(fp)
        if (fatReadSecter(pVol, Secter)){
 2041e1c:	e13ffe17 	ldw	r4,-8(fp)
 2041e20:	e17ffb17 	ldw	r5,-20(fp)
 2041e24:	20424ec0 	call	20424ec <fatReadSecter>
 2041e28:	10002526 	beq	r2,zero,2041ec0 <fatFindUnusedCluster+0x140>
            pFatEntry = (pVol->Secter_Data + (ThisCluster%nFatEntryPerSecter)*nFatEntrySize);
 2041e2c:	e0bffa17 	ldw	r2,-24(fp)
 2041e30:	e0fff717 	ldw	r3,-36(fp)
 2041e34:	1809883a 	mov	r4,r3
 2041e38:	100b883a 	mov	r5,r2
 2041e3c:	20454a80 	call	20454a8 <__umodsi3>
 2041e40:	1007883a 	mov	r3,r2
 2041e44:	e0bff917 	ldw	r2,-28(fp)
 2041e48:	1885383a 	mul	r2,r3,r2
 2041e4c:	10801004 	addi	r2,r2,64
 2041e50:	e0fffe17 	ldw	r3,-8(fp)
 2041e54:	1885883a 	add	r2,r3,r2
 2041e58:	e0bffc15 	stw	r2,-16(fp)
            if (pVol->Partition_Type == PARTITION_FAT32){
 2041e5c:	e0bffe17 	ldw	r2,-8(fp)
 2041e60:	10800317 	ldw	r2,12(r2)
 2041e64:	108002d8 	cmpnei	r2,r2,11
 2041e68:	1000071e 	bne	r2,zero,2041e88 <fatFindUnusedCluster+0x108>
                ClusterEntryValue = *(alt_u32*)pFatEntry; 
 2041e6c:	e0bffc17 	ldw	r2,-16(fp)
 2041e70:	10800017 	ldw	r2,0(r2)
 2041e74:	e0bffd15 	stw	r2,-12(fp)
                ClusterType = fat32ClusterType(ClusterEntryValue);
 2041e78:	e13ffd17 	ldw	r4,-12(fp)
 2041e7c:	2041b4c0 	call	2041b4c <fat32ClusterType>
 2041e80:	e0bff515 	stw	r2,-44(fp)
 2041e84:	00000706 	br	2041ea4 <fatFindUnusedCluster+0x124>
            }else{
                ClusterEntryValue = *(alt_u16 *)pFatEntry; 
 2041e88:	e0bffc17 	ldw	r2,-16(fp)
 2041e8c:	1080000b 	ldhu	r2,0(r2)
 2041e90:	10bfffcc 	andi	r2,r2,65535
 2041e94:	e0bffd15 	stw	r2,-12(fp)
                ClusterType = fat16ClusterType(ClusterEntryValue);
 2041e98:	e13ffd17 	ldw	r4,-12(fp)
 2041e9c:	2041a9c0 	call	2041a9c <fat16ClusterType>
 2041ea0:	e0bff515 	stw	r2,-44(fp)
            }    
            if (ClusterType == CLUSTER_UNUSED){
 2041ea4:	e0bff517 	ldw	r2,-44(fp)
 2041ea8:	1000071e 	bne	r2,zero,2041ec8 <fatFindUnusedCluster+0x148>
                UnusedCluster = ThisCluster;  // invalid cluster
 2041eac:	e0bff717 	ldw	r2,-36(fp)
 2041eb0:	e0bff615 	stw	r2,-40(fp)
                bDone = TRUE;
 2041eb4:	00800044 	movi	r2,1
 2041eb8:	e0bff815 	stw	r2,-32(fp)
 2041ebc:	00000206 	br	2041ec8 <fatFindUnusedCluster+0x148>
            }    
        }else{
            bDone = TRUE;
 2041ec0:	00800044 	movi	r2,1
 2041ec4:	e0bff815 	stw	r2,-32(fp)
        }     
        ThisCluster++;           
 2041ec8:	e0bff717 	ldw	r2,-36(fp)
 2041ecc:	10800044 	addi	r2,r2,1
 2041ed0:	e0bff715 	stw	r2,-36(fp)
    const alt_32 nFatEntrySize = (pVol->Partition_Type == PARTITION_FAT32)?4:2; // 2 byte for FAT16
    const alt_32 nFatEntryPerSecter = pVol->BPB_BytsPerSec/nFatEntrySize;
    alt_u32 Secter;
    bool bDone = FALSE;

    while(!bDone){     
 2041ed4:	e0bff817 	ldw	r2,-32(fp)
 2041ed8:	103fc426 	beq	r2,zero,2041dec <__alt_data_end+0xfffc1dec>
            bDone = TRUE;
        }     
        ThisCluster++;           
    }                
    
    return UnusedCluster;
 2041edc:	e0bff617 	ldw	r2,-40(fp)

}
 2041ee0:	e6ffff04 	addi	sp,fp,-4
 2041ee4:	dfc00217 	ldw	ra,8(sp)
 2041ee8:	df000117 	ldw	fp,4(sp)
 2041eec:	dc000017 	ldw	r16,0(sp)
 2041ef0:	dec00304 	addi	sp,sp,12
 2041ef4:	f800283a 	ret

02041ef8 <fatDelClusterList>:


bool fatDelClusterList(VOLUME_INFO *pVol, alt_u32 StartCluster){
 2041ef8:	defff204 	addi	sp,sp,-56
 2041efc:	dfc00d15 	stw	ra,52(sp)
 2041f00:	df000c15 	stw	fp,48(sp)
 2041f04:	dc000b15 	stw	r16,44(sp)
 2041f08:	df000c04 	addi	fp,sp,48
 2041f0c:	e13ffd15 	stw	r4,-12(fp)
 2041f10:	e17ffe15 	stw	r5,-8(fp)
    CLUSTER_TYPE ClusterType;
    bool bSuccess = TRUE;
 2041f14:	00800044 	movi	r2,1
 2041f18:	e0bff515 	stw	r2,-44(fp)
    bool bDone = FALSE;
 2041f1c:	e03ff615 	stw	zero,-40(fp)
    alt_u32 ClusterIndex, Secter, ClusterEntryValue;
    void *pFatEntryValue;
    
    
    const int nFatEntrySize = (pVol->Partition_Type == PARTITION_FAT32)?4:2; // 2 byte for FAT16
 2041f20:	e0bffd17 	ldw	r2,-12(fp)
 2041f24:	10800317 	ldw	r2,12(r2)
 2041f28:	108002d8 	cmpnei	r2,r2,11
 2041f2c:	1000021e 	bne	r2,zero,2041f38 <fatDelClusterList+0x40>
 2041f30:	00800104 	movi	r2,4
 2041f34:	00000106 	br	2041f3c <fatDelClusterList+0x44>
 2041f38:	00800084 	movi	r2,2
 2041f3c:	e0bff715 	stw	r2,-36(fp)
    const int nFatEntryPerSecter = pVol->BPB_BytsPerSec/nFatEntrySize;
 2041f40:	e0bffd17 	ldw	r2,-12(fp)
 2041f44:	10c00617 	ldw	r3,24(r2)
 2041f48:	e0bff717 	ldw	r2,-36(fp)
 2041f4c:	1809883a 	mov	r4,r3
 2041f50:	100b883a 	mov	r5,r2
 2041f54:	20454a00 	call	20454a0 <__udivsi3>
 2041f58:	e0bff815 	stw	r2,-32(fp)
     
    ClusterIndex = StartCluster;
 2041f5c:	e0bffe17 	ldw	r2,-8(fp)
 2041f60:	e0bff915 	stw	r2,-28(fp)
    while(bSuccess && !bDone){
 2041f64:	00005306 	br	20420b4 <fatDelClusterList+0x1bc>
        // read FAT Table
        Secter = pVol->FatEntrySecter + (ClusterIndex*nFatEntrySize)/pVol->BPB_BytsPerSec;
 2041f68:	e0bffd17 	ldw	r2,-12(fp)
 2041f6c:	14000d17 	ldw	r16,52(r2)
 2041f70:	e0fff717 	ldw	r3,-36(fp)
 2041f74:	e0bff917 	ldw	r2,-28(fp)
 2041f78:	1887383a 	mul	r3,r3,r2
 2041f7c:	e0bffd17 	ldw	r2,-12(fp)
 2041f80:	10800617 	ldw	r2,24(r2)
 2041f84:	1809883a 	mov	r4,r3
 2041f88:	100b883a 	mov	r5,r2
 2041f8c:	20454a00 	call	20454a0 <__udivsi3>
 2041f90:	8085883a 	add	r2,r16,r2
 2041f94:	e0bffa15 	stw	r2,-24(fp)
        bSuccess = fatReadSecter(pVol, Secter);
 2041f98:	e13ffd17 	ldw	r4,-12(fp)
 2041f9c:	e17ffa17 	ldw	r5,-24(fp)
 2041fa0:	20424ec0 	call	20424ec <fatReadSecter>
 2041fa4:	e0bff515 	stw	r2,-44(fp)
        if (bSuccess){
 2041fa8:	e0bff517 	ldw	r2,-44(fp)
 2041fac:	10004126 	beq	r2,zero,20420b4 <fatDelClusterList+0x1bc>
            // get the value of FAT entry
            pFatEntryValue = (pVol->Secter_Data + (ClusterIndex%nFatEntryPerSecter)*nFatEntrySize);
 2041fb0:	e0bff817 	ldw	r2,-32(fp)
 2041fb4:	e0fff917 	ldw	r3,-28(fp)
 2041fb8:	1809883a 	mov	r4,r3
 2041fbc:	100b883a 	mov	r5,r2
 2041fc0:	20454a80 	call	20454a8 <__umodsi3>
 2041fc4:	1007883a 	mov	r3,r2
 2041fc8:	e0bff717 	ldw	r2,-36(fp)
 2041fcc:	1885383a 	mul	r2,r3,r2
 2041fd0:	10801004 	addi	r2,r2,64
 2041fd4:	e0fffd17 	ldw	r3,-12(fp)
 2041fd8:	1885883a 	add	r2,r3,r2
 2041fdc:	e0bffb15 	stw	r2,-20(fp)
            if (pVol->Partition_Type == PARTITION_FAT32){
 2041fe0:	e0bffd17 	ldw	r2,-12(fp)
 2041fe4:	10800317 	ldw	r2,12(r2)
 2041fe8:	108002d8 	cmpnei	r2,r2,11
 2041fec:	1000071e 	bne	r2,zero,204200c <fatDelClusterList+0x114>
                ClusterEntryValue = *(alt_u32 *)pFatEntryValue; 
 2041ff0:	e0bffb17 	ldw	r2,-20(fp)
 2041ff4:	10800017 	ldw	r2,0(r2)
 2041ff8:	e0bffc15 	stw	r2,-16(fp)
                ClusterType = fat32ClusterType(ClusterEntryValue);
 2041ffc:	e13ffc17 	ldw	r4,-16(fp)
 2042000:	2041b4c0 	call	2041b4c <fat32ClusterType>
 2042004:	e0bff415 	stw	r2,-48(fp)
 2042008:	00000706 	br	2042028 <fatDelClusterList+0x130>
            }else{
                ClusterEntryValue = *(alt_u16 *)pFatEntryValue; //(pVol->Secter_Data + (ThisCluster%nFatEntryPerSecter)*nFatEntrySize); 
 204200c:	e0bffb17 	ldw	r2,-20(fp)
 2042010:	1080000b 	ldhu	r2,0(r2)
 2042014:	10bfffcc 	andi	r2,r2,65535
 2042018:	e0bffc15 	stw	r2,-16(fp)
                ClusterType = fat16ClusterType(ClusterEntryValue);
 204201c:	e13ffc17 	ldw	r4,-16(fp)
 2042020:	2041a9c0 	call	2041a9c <fat16ClusterType>
 2042024:	e0bff415 	stw	r2,-48(fp)
            }
                
            if (ClusterType != CLUSTER_NEXT_INFILE && ClusterType != CLUSTER_LAST_INFILE){
 2042028:	e0bff417 	ldw	r2,-48(fp)
 204202c:	10800120 	cmpeqi	r2,r2,4
 2042030:	1000071e 	bne	r2,zero,2042050 <fatDelClusterList+0x158>
 2042034:	e0bff417 	ldw	r2,-48(fp)
 2042038:	108000e0 	cmpeqi	r2,r2,3
 204203c:	1000041e 	bne	r2,zero,2042050 <fatDelClusterList+0x158>
                bDone = TRUE;
 2042040:	00800044 	movi	r2,1
 2042044:	e0bff615 	stw	r2,-40(fp)
                bSuccess = FALSE;
 2042048:	e03ff515 	stw	zero,-44(fp)
 204204c:	00001906 	br	20420b4 <fatDelClusterList+0x1bc>
            }else{
                if (ClusterType == CLUSTER_LAST_INFILE)
 2042050:	e0bff417 	ldw	r2,-48(fp)
 2042054:	108000d8 	cmpnei	r2,r2,3
 2042058:	1000021e 	bne	r2,zero,2042064 <fatDelClusterList+0x16c>
                    bDone = TRUE; // the last cluster
 204205c:	00800044 	movi	r2,1
 2042060:	e0bff615 	stw	r2,-40(fp)
                // update
                if (pVol->Partition_Type == PARTITION_FAT32)
 2042064:	e0bffd17 	ldw	r2,-12(fp)
 2042068:	10800317 	ldw	r2,12(r2)
 204206c:	108002d8 	cmpnei	r2,r2,11
 2042070:	1000031e 	bne	r2,zero,2042080 <fatDelClusterList+0x188>
                    *(alt_u32 *)pFatEntryValue = CLUSTER_UNUSED;
 2042074:	e0bffb17 	ldw	r2,-20(fp)
 2042078:	10000015 	stw	zero,0(r2)
 204207c:	00000206 	br	2042088 <fatDelClusterList+0x190>
                else 
                    *(alt_u16 *)pFatEntryValue = CLUSTER_UNUSED;
 2042080:	e0bffb17 	ldw	r2,-20(fp)
 2042084:	1000000d 	sth	zero,0(r2)
                //write back FAT Table
                bSuccess = pVol->WriteBlock512(pVol->DiskHandle, pVol->Secter_Index, pVol->Secter_Data);
 2042088:	e0bffd17 	ldw	r2,-12(fp)
 204208c:	10800217 	ldw	r2,8(r2)
 2042090:	e0fffd17 	ldw	r3,-12(fp)
 2042094:	19000017 	ldw	r4,0(r3)
 2042098:	e0fffd17 	ldw	r3,-12(fp)
 204209c:	19409017 	ldw	r5,576(r3)
 20420a0:	e0fffd17 	ldw	r3,-12(fp)
 20420a4:	18c01004 	addi	r3,r3,64
 20420a8:	180d883a 	mov	r6,r3
 20420ac:	103ee83a 	callr	r2
 20420b0:	e0bff515 	stw	r2,-44(fp)
    
    const int nFatEntrySize = (pVol->Partition_Type == PARTITION_FAT32)?4:2; // 2 byte for FAT16
    const int nFatEntryPerSecter = pVol->BPB_BytsPerSec/nFatEntrySize;
     
    ClusterIndex = StartCluster;
    while(bSuccess && !bDone){
 20420b4:	e0bff517 	ldw	r2,-44(fp)
 20420b8:	10000226 	beq	r2,zero,20420c4 <fatDelClusterList+0x1cc>
 20420bc:	e0bff617 	ldw	r2,-40(fp)
 20420c0:	103fa926 	beq	r2,zero,2041f68 <__alt_data_end+0xfffc1f68>
            }    
        }                
    }  // while                
    
    
    return bSuccess;
 20420c4:	e0bff517 	ldw	r2,-44(fp)

}
 20420c8:	e6ffff04 	addi	sp,fp,-4
 20420cc:	dfc00217 	ldw	ra,8(sp)
 20420d0:	df000117 	ldw	fp,4(sp)
 20420d4:	dc000017 	ldw	r16,0(sp)
 20420d8:	dec00304 	addi	sp,sp,12
 20420dc:	f800283a 	ret

020420e0 <fatDumpDate>:


void fatDumpDate(unsigned short Date){
 20420e0:	defffb04 	addi	sp,sp,-20
 20420e4:	df000415 	stw	fp,16(sp)
 20420e8:	df000404 	addi	fp,sp,16
 20420ec:	2005883a 	mov	r2,r4
 20420f0:	e0bfff0d 	sth	r2,-4(fp)
    int Year, Month, Day;
    Year = ((Date >> 9) & 0x1F) + 1980;
 20420f4:	e0bfff0b 	ldhu	r2,-4(fp)
 20420f8:	1004d27a 	srli	r2,r2,9
 20420fc:	10bfffcc 	andi	r2,r2,65535
 2042100:	108007cc 	andi	r2,r2,31
 2042104:	1081ef04 	addi	r2,r2,1980
 2042108:	e0bffc15 	stw	r2,-16(fp)
    Month = ((Date >> 5) & 0xF);
 204210c:	e0bfff0b 	ldhu	r2,-4(fp)
 2042110:	1004d17a 	srli	r2,r2,5
 2042114:	10bfffcc 	andi	r2,r2,65535
 2042118:	108003cc 	andi	r2,r2,15
 204211c:	e0bffd15 	stw	r2,-12(fp)
    Day = ((Date >> 0) & 0x1F);
 2042120:	e0bfff0b 	ldhu	r2,-4(fp)
 2042124:	108007cc 	andi	r2,r2,31
 2042128:	e0bffe15 	stw	r2,-8(fp)
    FAT_DEBUG(("%d,%d,%d", Year, Month, Day)); 
}
 204212c:	e037883a 	mov	sp,fp
 2042130:	df000017 	ldw	fp,0(sp)
 2042134:	dec00104 	addi	sp,sp,4
 2042138:	f800283a 	ret

0204213c <fatDumpTime>:

void fatDumpTime(unsigned short Date){
 204213c:	defffb04 	addi	sp,sp,-20
 2042140:	df000415 	stw	fp,16(sp)
 2042144:	df000404 	addi	fp,sp,16
 2042148:	2005883a 	mov	r2,r4
 204214c:	e0bfff0d 	sth	r2,-4(fp)
    int H,M,S;
    H = ((Date >> 9) & 0x1F);
 2042150:	e0bfff0b 	ldhu	r2,-4(fp)
 2042154:	1004d27a 	srli	r2,r2,9
 2042158:	10bfffcc 	andi	r2,r2,65535
 204215c:	108007cc 	andi	r2,r2,31
 2042160:	e0bffc15 	stw	r2,-16(fp)
    M = ((Date >> 5) & 0x3F);
 2042164:	e0bfff0b 	ldhu	r2,-4(fp)
 2042168:	1004d17a 	srli	r2,r2,5
 204216c:	10bfffcc 	andi	r2,r2,65535
 2042170:	10800fcc 	andi	r2,r2,63
 2042174:	e0bffd15 	stw	r2,-12(fp)
    S = ((Date >> 0) & 0x1F)*2;
 2042178:	e0bfff0b 	ldhu	r2,-4(fp)
 204217c:	108007cc 	andi	r2,r2,31
 2042180:	1085883a 	add	r2,r2,r2
 2042184:	e0bffe15 	stw	r2,-8(fp)
    FAT_DEBUG(("%d:%d:%d", H, M, S));     
}
 2042188:	e037883a 	mov	sp,fp
 204218c:	df000017 	ldw	fp,0(sp)
 2042190:	dec00104 	addi	sp,sp,4
 2042194:	f800283a 	ret

02042198 <fatIsLastDir>:

bool fatIsLastDir(FAT_DIRECTORY *pDir){
 2042198:	defffe04 	addi	sp,sp,-8
 204219c:	df000115 	stw	fp,4(sp)
 20421a0:	df000104 	addi	fp,sp,4
 20421a4:	e13fff15 	stw	r4,-4(fp)
    if (pDir->Name[0] == REMAINED_UNUSED_DIR_ENTRY)  // 0x00
 20421a8:	e0bfff17 	ldw	r2,-4(fp)
 20421ac:	10800003 	ldbu	r2,0(r2)
 20421b0:	10803fcc 	andi	r2,r2,255
 20421b4:	1080201c 	xori	r2,r2,128
 20421b8:	10bfe004 	addi	r2,r2,-128
 20421bc:	1000021e 	bne	r2,zero,20421c8 <fatIsLastDir+0x30>
        return TRUE;
 20421c0:	00800044 	movi	r2,1
 20421c4:	00000106 	br	20421cc <fatIsLastDir+0x34>
    return FALSE;        
 20421c8:	0005883a 	mov	r2,zero
}
 20421cc:	e037883a 	mov	sp,fp
 20421d0:	df000017 	ldw	fp,0(sp)
 20421d4:	dec00104 	addi	sp,sp,4
 20421d8:	f800283a 	ret

020421dc <fatIsValidDir>:


bool fatIsValidDir(FAT_DIRECTORY *pDir){
 20421dc:	defff704 	addi	sp,sp,-36
 20421e0:	dfc00815 	stw	ra,32(sp)
 20421e4:	df000715 	stw	fp,28(sp)
 20421e8:	df000704 	addi	fp,sp,28
 20421ec:	e13fff15 	stw	r4,-4(fp)
    char szTest[] = {0x00, 0xE5, 0x22, 0x2A, 0x2B, 0x2C, 0x2E, 0x2F, 0x3A, 0x3B, 0x3C, 0x3E, 0x3F, 0x5B, 0x5C, 0x5D, 0x7C};
 20421f0:	008081b4 	movhi	r2,518
 20421f4:	1087b404 	addi	r2,r2,7888
 20421f8:	e0fffa04 	addi	r3,fp,-24
 20421fc:	100b883a 	mov	r5,r2
 2042200:	00800444 	movi	r2,17
 2042204:	1809883a 	mov	r4,r3
 2042208:	100d883a 	mov	r6,r2
 204220c:	204870c0 	call	204870c <memcpy>
    int i;
    
    for(i=0;i<sizeof(szTest)/sizeof(szTest[0]);i++){
 2042210:	e03ff915 	stw	zero,-28(fp)
 2042214:	00001206 	br	2042260 <fatIsValidDir+0x84>
        if (pDir->Name[0] == szTest[i]){
 2042218:	e0bfff17 	ldw	r2,-4(fp)
 204221c:	11000003 	ldbu	r4,0(r2)
 2042220:	e0fffa04 	addi	r3,fp,-24
 2042224:	e0bff917 	ldw	r2,-28(fp)
 2042228:	1885883a 	add	r2,r3,r2
 204222c:	10800003 	ldbu	r2,0(r2)
 2042230:	20c03fcc 	andi	r3,r4,255
 2042234:	18c0201c 	xori	r3,r3,128
 2042238:	18ffe004 	addi	r3,r3,-128
 204223c:	10803fcc 	andi	r2,r2,255
 2042240:	1080201c 	xori	r2,r2,128
 2042244:	10bfe004 	addi	r2,r2,-128
 2042248:	1880021e 	bne	r3,r2,2042254 <fatIsValidDir+0x78>
            return FALSE;
 204224c:	0005883a 	mov	r2,zero
 2042250:	00000706 	br	2042270 <fatIsValidDir+0x94>

bool fatIsValidDir(FAT_DIRECTORY *pDir){
    char szTest[] = {0x00, 0xE5, 0x22, 0x2A, 0x2B, 0x2C, 0x2E, 0x2F, 0x3A, 0x3B, 0x3C, 0x3E, 0x3F, 0x5B, 0x5C, 0x5D, 0x7C};
    int i;
    
    for(i=0;i<sizeof(szTest)/sizeof(szTest[0]);i++){
 2042254:	e0bff917 	ldw	r2,-28(fp)
 2042258:	10800044 	addi	r2,r2,1
 204225c:	e0bff915 	stw	r2,-28(fp)
 2042260:	e0bff917 	ldw	r2,-28(fp)
 2042264:	10800470 	cmpltui	r2,r2,17
 2042268:	103feb1e 	bne	r2,zero,2042218 <__alt_data_end+0xfffc2218>
        if (pDir->Name[0] == szTest[i]){
            return FALSE;
        }
    }    
    return TRUE;
 204226c:	00800044 	movi	r2,1
    
}
 2042270:	e037883a 	mov	sp,fp
 2042274:	dfc00117 	ldw	ra,4(sp)
 2042278:	df000017 	ldw	fp,0(sp)
 204227c:	dec00204 	addi	sp,sp,8
 2042280:	f800283a 	ret

02042284 <fatIsUnusedDir>:

bool fatIsUnusedDir(FAT_DIRECTORY *pDir){
 2042284:	defffe04 	addi	sp,sp,-8
 2042288:	df000115 	stw	fp,4(sp)
 204228c:	df000104 	addi	fp,sp,4
 2042290:	e13fff15 	stw	r4,-4(fp)
    if (pDir->Name[0] == (alt_8)UNUSED_DIR_ENTRY)
 2042294:	e0bfff17 	ldw	r2,-4(fp)
 2042298:	10800003 	ldbu	r2,0(r2)
 204229c:	10803fcc 	andi	r2,r2,255
 20422a0:	1080201c 	xori	r2,r2,128
 20422a4:	10bfe004 	addi	r2,r2,-128
 20422a8:	10bff958 	cmpnei	r2,r2,-27
 20422ac:	1000021e 	bne	r2,zero,20422b8 <fatIsUnusedDir+0x34>
        return TRUE;
 20422b0:	00800044 	movi	r2,1
 20422b4:	00000106 	br	20422bc <fatIsUnusedDir+0x38>
    return FALSE; 
 20422b8:	0005883a 	mov	r2,zero
}
 20422bc:	e037883a 	mov	sp,fp
 20422c0:	df000017 	ldw	fp,0(sp)
 20422c4:	dec00104 	addi	sp,sp,4
 20422c8:	f800283a 	ret

020422cc <fatDump>:

// debug
void fatDump(FAT_DIRECTORY *pDir){
 20422cc:	defff804 	addi	sp,sp,-32
 20422d0:	dfc00715 	stw	ra,28(sp)
 20422d4:	df000615 	stw	fp,24(sp)
 20422d8:	df000604 	addi	fp,sp,24
 20422dc:	e13fff15 	stw	r4,-4(fp)
    char szInvalidName[] = {0x22, 0x2A, 0x2B, 0x2C, 0x2E, 0x2F, 0x3A, 0x3B, 0x3C, 0x3E, 0x3F, 0x5B, 0x5C, 0x5D, 0x7C};
 20422e0:	008081b4 	movhi	r2,518
 20422e4:	1087b844 	addi	r2,r2,7905
 20422e8:	e0fffb04 	addi	r3,fp,-20
 20422ec:	100b883a 	mov	r5,r2
 20422f0:	008003c4 	movi	r2,15
 20422f4:	1809883a 	mov	r4,r3
 20422f8:	100d883a 	mov	r6,r2
 20422fc:	204870c0 	call	204870c <memcpy>
    int i;
    if (pDir->Name[0] == (char)0xE5){
 2042300:	e0bfff17 	ldw	r2,-4(fp)
 2042304:	10800003 	ldbu	r2,0(r2)
 2042308:	10803fcc 	andi	r2,r2,255
 204230c:	1080201c 	xori	r2,r2,128
 2042310:	10bfe004 	addi	r2,r2,-128
 2042314:	10bff958 	cmpnei	r2,r2,-27
 2042318:	1000011e 	bne	r2,zero,2042320 <fatDump+0x54>
        FAT_DEBUG(("the directory entry is free.\n"));
        return;
 204231c:	00004c06 	br	2042450 <fatDump+0x184>
    }
    if (pDir->Name[0] == 0x00){
 2042320:	e0bfff17 	ldw	r2,-4(fp)
 2042324:	10800003 	ldbu	r2,0(r2)
 2042328:	10803fcc 	andi	r2,r2,255
 204232c:	1080201c 	xori	r2,r2,128
 2042330:	10bfe004 	addi	r2,r2,-128
 2042334:	1000011e 	bne	r2,zero,204233c <fatDump+0x70>
        FAT_DEBUG(("the directory entry is free, and there are no allocated directory entries after tis one.\n"));
        return;
 2042338:	00004506 	br	2042450 <fatDump+0x184>
    }
    
    if (pDir->Name[0] <= 0x20 && pDir->Name[0] != 0x05){
 204233c:	e0bfff17 	ldw	r2,-4(fp)
 2042340:	10800003 	ldbu	r2,0(r2)
 2042344:	10803fcc 	andi	r2,r2,255
 2042348:	1080201c 	xori	r2,r2,128
 204234c:	10bfe004 	addi	r2,r2,-128
 2042350:	10800848 	cmpgei	r2,r2,33
 2042354:	1000081e 	bne	r2,zero,2042378 <fatDump+0xac>
 2042358:	e0bfff17 	ldw	r2,-4(fp)
 204235c:	10800003 	ldbu	r2,0(r2)
 2042360:	10803fcc 	andi	r2,r2,255
 2042364:	1080201c 	xori	r2,r2,128
 2042368:	10bfe004 	addi	r2,r2,-128
 204236c:	10800160 	cmpeqi	r2,r2,5
 2042370:	1000011e 	bne	r2,zero,2042378 <fatDump+0xac>
        FAT_DEBUG(("Invalid file name.\n"));
        return;
 2042374:	00003606 	br	2042450 <fatDump+0x184>
    }
    
    for(i=0;i<sizeof(szInvalidName)/sizeof(szInvalidName[0]);i++){
 2042378:	e03ffa15 	stw	zero,-24(fp)
 204237c:	00001106 	br	20423c4 <fatDump+0xf8>
        if (pDir->Name[0] == szInvalidName[i]){
 2042380:	e0bfff17 	ldw	r2,-4(fp)
 2042384:	11000003 	ldbu	r4,0(r2)
 2042388:	e0fffb04 	addi	r3,fp,-20
 204238c:	e0bffa17 	ldw	r2,-24(fp)
 2042390:	1885883a 	add	r2,r3,r2
 2042394:	10800003 	ldbu	r2,0(r2)
 2042398:	20c03fcc 	andi	r3,r4,255
 204239c:	18c0201c 	xori	r3,r3,128
 20423a0:	18ffe004 	addi	r3,r3,-128
 20423a4:	10803fcc 	andi	r2,r2,255
 20423a8:	1080201c 	xori	r2,r2,128
 20423ac:	10bfe004 	addi	r2,r2,-128
 20423b0:	1880011e 	bne	r3,r2,20423b8 <fatDump+0xec>
            FAT_DEBUG(("Invalid file name.\n"));
            return;
 20423b4:	00002606 	br	2042450 <fatDump+0x184>
    if (pDir->Name[0] <= 0x20 && pDir->Name[0] != 0x05){
        FAT_DEBUG(("Invalid file name.\n"));
        return;
    }
    
    for(i=0;i<sizeof(szInvalidName)/sizeof(szInvalidName[0]);i++){
 20423b8:	e0bffa17 	ldw	r2,-24(fp)
 20423bc:	10800044 	addi	r2,r2,1
 20423c0:	e0bffa15 	stw	r2,-24(fp)
 20423c4:	e0bffa17 	ldw	r2,-24(fp)
 20423c8:	108003f0 	cmpltui	r2,r2,15
 20423cc:	103fec1e 	bne	r2,zero,2042380 <__alt_data_end+0xfffc2380>
        FAT_DEBUG(("  Directory\n"));
    if (pDir->Attribute & ATTR_ARCHIVE)
        FAT_DEBUG(("  Archive\n"));
    if (pDir->Attribute & ATTR_LONG_NAME)
        FAT_DEBUG(("  Long Name\n"));
    FAT_DEBUG(("CreateTime:")); fatDumpTime(pDir->CreateTime);FAT_DEBUG(("\n"));
 20423d0:	e0bfff17 	ldw	r2,-4(fp)
 20423d4:	10c00383 	ldbu	r3,14(r2)
 20423d8:	108003c3 	ldbu	r2,15(r2)
 20423dc:	1004923a 	slli	r2,r2,8
 20423e0:	10c4b03a 	or	r2,r2,r3
 20423e4:	10bfffcc 	andi	r2,r2,65535
 20423e8:	1009883a 	mov	r4,r2
 20423ec:	204213c0 	call	204213c <fatDumpTime>
    FAT_DEBUG(("CreateDate:")); fatDumpDate(pDir->LastAccessDate);FAT_DEBUG(("\n"));
 20423f0:	e0bfff17 	ldw	r2,-4(fp)
 20423f4:	10c00483 	ldbu	r3,18(r2)
 20423f8:	108004c3 	ldbu	r2,19(r2)
 20423fc:	1004923a 	slli	r2,r2,8
 2042400:	10c4b03a 	or	r2,r2,r3
 2042404:	10bfffcc 	andi	r2,r2,65535
 2042408:	1009883a 	mov	r4,r2
 204240c:	20420e00 	call	20420e0 <fatDumpDate>
    FAT_DEBUG(("ClusterHi:%04Xh\n", pDir->FirstLogicalClusterHi));
    FAT_DEBUG(("LastWriteTime:")); fatDumpTime(pDir->LastWriteTime);FAT_DEBUG(("\n"));
 2042410:	e0bfff17 	ldw	r2,-4(fp)
 2042414:	10c00583 	ldbu	r3,22(r2)
 2042418:	108005c3 	ldbu	r2,23(r2)
 204241c:	1004923a 	slli	r2,r2,8
 2042420:	10c4b03a 	or	r2,r2,r3
 2042424:	10bfffcc 	andi	r2,r2,65535
 2042428:	1009883a 	mov	r4,r2
 204242c:	204213c0 	call	204213c <fatDumpTime>
    FAT_DEBUG(("LastWriteDate:")); fatDumpDate(pDir->LastWriteDate);FAT_DEBUG(("\n"));
 2042430:	e0bfff17 	ldw	r2,-4(fp)
 2042434:	10c00603 	ldbu	r3,24(r2)
 2042438:	10800643 	ldbu	r2,25(r2)
 204243c:	1004923a 	slli	r2,r2,8
 2042440:	10c4b03a 	or	r2,r2,r3
 2042444:	10bfffcc 	andi	r2,r2,65535
 2042448:	1009883a 	mov	r4,r2
 204244c:	20420e00 	call	20420e0 <fatDumpDate>
    FAT_DEBUG(("Cluster:%04Xh(%d)\n", pDir->FirstLogicalCluster,pDir->FirstLogicalCluster));
    FAT_DEBUG(("File Size:%08Xh(%ld)\n", pDir->FileSize, (long)pDir->FileSize));
}
 2042450:	e037883a 	mov	sp,fp
 2042454:	dfc00117 	ldw	ra,4(sp)
 2042458:	df000017 	ldw	fp,0(sp)
 204245c:	dec00204 	addi	sp,sp,8
 2042460:	f800283a 	ret

02042464 <fatArray2Value>:


unsigned int fatArray2Value(unsigned char *pValue, unsigned int nNum){
 2042464:	defffa04 	addi	sp,sp,-24
 2042468:	df000515 	stw	fp,20(sp)
 204246c:	df000504 	addi	fp,sp,20
 2042470:	e13ffe15 	stw	r4,-8(fp)
 2042474:	e17fff15 	stw	r5,-4(fp)
    alt_u8 *pMSB = (pValue + nNum - 1);
 2042478:	e0bfff17 	ldw	r2,-4(fp)
 204247c:	10bfffc4 	addi	r2,r2,-1
 2042480:	e0fffe17 	ldw	r3,-8(fp)
 2042484:	1885883a 	add	r2,r3,r2
 2042488:	e0bffb15 	stw	r2,-20(fp)
    alt_u32 nValue;
    int i;
    for(i=0;i<nNum;i++){
 204248c:	e03ffd15 	stw	zero,-12(fp)
 2042490:	00000e06 	br	20424cc <fatArray2Value+0x68>
        nValue <<= 8;
 2042494:	e0bffc17 	ldw	r2,-16(fp)
 2042498:	1004923a 	slli	r2,r2,8
 204249c:	e0bffc15 	stw	r2,-16(fp)
        nValue |= *pMSB--;
 20424a0:	e0bffb17 	ldw	r2,-20(fp)
 20424a4:	10ffffc4 	addi	r3,r2,-1
 20424a8:	e0fffb15 	stw	r3,-20(fp)
 20424ac:	10800003 	ldbu	r2,0(r2)
 20424b0:	10803fcc 	andi	r2,r2,255
 20424b4:	e0fffc17 	ldw	r3,-16(fp)
 20424b8:	1884b03a 	or	r2,r3,r2
 20424bc:	e0bffc15 	stw	r2,-16(fp)

unsigned int fatArray2Value(unsigned char *pValue, unsigned int nNum){
    alt_u8 *pMSB = (pValue + nNum - 1);
    alt_u32 nValue;
    int i;
    for(i=0;i<nNum;i++){
 20424c0:	e0bffd17 	ldw	r2,-12(fp)
 20424c4:	10800044 	addi	r2,r2,1
 20424c8:	e0bffd15 	stw	r2,-12(fp)
 20424cc:	e0fffd17 	ldw	r3,-12(fp)
 20424d0:	e0bfff17 	ldw	r2,-4(fp)
 20424d4:	18bfef36 	bltu	r3,r2,2042494 <__alt_data_end+0xfffc2494>
        nValue <<= 8;
        nValue |= *pMSB--;
        
    }
    
    return nValue;
 20424d8:	e0bffc17 	ldw	r2,-16(fp)
}
 20424dc:	e037883a 	mov	sp,fp
 20424e0:	df000017 	ldw	fp,0(sp)
 20424e4:	dec00104 	addi	sp,sp,4
 20424e8:	f800283a 	ret

020424ec <fatReadSecter>:

//=================================================================================
//// add in v2.0
bool fatReadSecter(VOLUME_INFO *pVol, alt_u32 nSecter){
 20424ec:	defffb04 	addi	sp,sp,-20
 20424f0:	dfc00415 	stw	ra,16(sp)
 20424f4:	df000315 	stw	fp,12(sp)
 20424f8:	df000304 	addi	fp,sp,12
 20424fc:	e13ffe15 	stw	r4,-8(fp)
 2042500:	e17fff15 	stw	r5,-4(fp)
    bool bSuccess = TRUE;
 2042504:	00800044 	movi	r2,1
 2042508:	e0bffd15 	stw	r2,-12(fp)
    if (nSecter != pVol->Secter_Index){
 204250c:	e0bffe17 	ldw	r2,-8(fp)
 2042510:	10c09017 	ldw	r3,576(r2)
 2042514:	e0bfff17 	ldw	r2,-4(fp)
 2042518:	18801226 	beq	r3,r2,2042564 <fatReadSecter+0x78>
        if (!pVol->ReadBlock512(pVol->DiskHandle, nSecter, pVol->Secter_Data)){
 204251c:	e0bffe17 	ldw	r2,-8(fp)
 2042520:	10800117 	ldw	r2,4(r2)
 2042524:	e0fffe17 	ldw	r3,-8(fp)
 2042528:	19000017 	ldw	r4,0(r3)
 204252c:	e0fffe17 	ldw	r3,-8(fp)
 2042530:	18c01004 	addi	r3,r3,64
 2042534:	e17fff17 	ldw	r5,-4(fp)
 2042538:	180d883a 	mov	r6,r3
 204253c:	103ee83a 	callr	r2
 2042540:	1000051e 	bne	r2,zero,2042558 <fatReadSecter+0x6c>
            pVol->Secter_Index = -1;
 2042544:	e0bffe17 	ldw	r2,-8(fp)
 2042548:	00ffffc4 	movi	r3,-1
 204254c:	10c09015 	stw	r3,576(r2)
            bSuccess = FALSE;
 2042550:	e03ffd15 	stw	zero,-12(fp)
 2042554:	00000306 	br	2042564 <fatReadSecter+0x78>
        }else{
            pVol->Secter_Index = nSecter;
 2042558:	e0bffe17 	ldw	r2,-8(fp)
 204255c:	e0ffff17 	ldw	r3,-4(fp)
 2042560:	10c09015 	stw	r3,576(r2)
        }
    }
    return bSuccess;          
 2042564:	e0bffd17 	ldw	r2,-12(fp)
}     
 2042568:	e037883a 	mov	sp,fp
 204256c:	dfc00117 	ldw	ra,4(sp)
 2042570:	df000017 	ldw	fp,0(sp)
 2042574:	dec00204 	addi	sp,sp,8
 2042578:	f800283a 	ret

0204257c <fatFindDirectory>:

//=================================================================================
//// add in v2.0
FAT_DIRECTORY* fatFindDirectory(VOLUME_INFO *pVol, alt_u32 nDirectoryIndex){
 204257c:	defff804 	addi	sp,sp,-32
 2042580:	dfc00715 	stw	ra,28(sp)
 2042584:	df000615 	stw	fp,24(sp)
 2042588:	df000604 	addi	fp,sp,24
 204258c:	e13ffe15 	stw	r4,-8(fp)
 2042590:	e17fff15 	stw	r5,-4(fp)
    FAT_DIRECTORY *pDir=NULL;
 2042594:	e03ffa15 	stw	zero,-24(fp)
    alt_u32 nSecterOffset, nSecter, nByteOffset;
             
    nSecterOffset = (sizeof(FAT_DIRECTORY)*nDirectoryIndex)/pVol->BPB_BytsPerSec;
 2042598:	e0bfff17 	ldw	r2,-4(fp)
 204259c:	1006917a 	slli	r3,r2,5
 20425a0:	e0bffe17 	ldw	r2,-8(fp)
 20425a4:	10800617 	ldw	r2,24(r2)
 20425a8:	1809883a 	mov	r4,r3
 20425ac:	100b883a 	mov	r5,r2
 20425b0:	20454a00 	call	20454a0 <__udivsi3>
 20425b4:	e0bffb15 	stw	r2,-20(fp)
    nSecter = pVol->RootDirectoryEntrySecter + nSecterOffset;
 20425b8:	e0bffe17 	ldw	r2,-8(fp)
 20425bc:	10c00e17 	ldw	r3,56(r2)
 20425c0:	e0bffb17 	ldw	r2,-20(fp)
 20425c4:	1885883a 	add	r2,r3,r2
 20425c8:	e0bffc15 	stw	r2,-16(fp)
        // read sector
    if (fatReadSecter(pVol, nSecter)){
 20425cc:	e13ffe17 	ldw	r4,-8(fp)
 20425d0:	e17ffc17 	ldw	r5,-16(fp)
 20425d4:	20424ec0 	call	20424ec <fatReadSecter>
 20425d8:	10000d26 	beq	r2,zero,2042610 <fatFindDirectory+0x94>
        nByteOffset = (sizeof(FAT_DIRECTORY)*nDirectoryIndex)%pVol->BPB_BytsPerSec; 
 20425dc:	e0bfff17 	ldw	r2,-4(fp)
 20425e0:	1006917a 	slli	r3,r2,5
 20425e4:	e0bffe17 	ldw	r2,-8(fp)
 20425e8:	10800617 	ldw	r2,24(r2)
 20425ec:	1809883a 	mov	r4,r3
 20425f0:	100b883a 	mov	r5,r2
 20425f4:	20454a80 	call	20454a8 <__umodsi3>
 20425f8:	e0bffd15 	stw	r2,-12(fp)
        pDir = (FAT_DIRECTORY *)(pVol->Secter_Data + nByteOffset);
 20425fc:	e0bffd17 	ldw	r2,-12(fp)
 2042600:	10801004 	addi	r2,r2,64
 2042604:	e0fffe17 	ldw	r3,-8(fp)
 2042608:	1885883a 	add	r2,r3,r2
 204260c:	e0bffa15 	stw	r2,-24(fp)
    }        
        
    return pDir;        
 2042610:	e0bffa17 	ldw	r2,-24(fp)
}
 2042614:	e037883a 	mov	sp,fp
 2042618:	dfc00117 	ldw	ra,4(sp)
 204261c:	df000017 	ldw	fp,0(sp)
 2042620:	dec00204 	addi	sp,sp,8
 2042624:	f800283a 	ret

02042628 <fatFindUnusedDirectory>:

//=================================================================================
//// add in v2.0
alt_u32 fatFindUnusedDirectory(VOLUME_INFO *pVol){
 2042628:	defff604 	addi	sp,sp,-40
 204262c:	dfc00915 	stw	ra,36(sp)
 2042630:	df000815 	stw	fp,32(sp)
 2042634:	df000804 	addi	fp,sp,32
 2042638:	e13fff15 	stw	r4,-4(fp)
    alt_u32 Dir = -1;
 204263c:	00bfffc4 	movi	r2,-1
 2042640:	e0bff815 	stw	r2,-32(fp)
    FAT_DIRECTORY *pDir=NULL;
 2042644:	e03ffb15 	stw	zero,-20(fp)
    alt_u32 nSecterOffset, nSecter, nByteOffset;
    alt_u32 nDirectoryIndex = 2; //??? start from ?
 2042648:	00800084 	movi	r2,2
 204264c:	e0bff915 	stw	r2,-28(fp)
    bool bDone = FALSE;
 2042650:	e03ffa15 	stw	zero,-24(fp)
             
    while(!bDone){             
 2042654:	00003006 	br	2042718 <fatFindUnusedDirectory+0xf0>
        nSecterOffset = (sizeof(FAT_DIRECTORY)*nDirectoryIndex)/pVol->BPB_BytsPerSec;
 2042658:	e0bff917 	ldw	r2,-28(fp)
 204265c:	1006917a 	slli	r3,r2,5
 2042660:	e0bfff17 	ldw	r2,-4(fp)
 2042664:	10800617 	ldw	r2,24(r2)
 2042668:	1809883a 	mov	r4,r3
 204266c:	100b883a 	mov	r5,r2
 2042670:	20454a00 	call	20454a0 <__udivsi3>
 2042674:	e0bffc15 	stw	r2,-16(fp)
        nSecter = pVol->RootDirectoryEntrySecter + nSecterOffset;
 2042678:	e0bfff17 	ldw	r2,-4(fp)
 204267c:	10c00e17 	ldw	r3,56(r2)
 2042680:	e0bffc17 	ldw	r2,-16(fp)
 2042684:	1885883a 	add	r2,r3,r2
 2042688:	e0bffd15 	stw	r2,-12(fp)
            // read sector
        if (fatReadSecter(pVol, nSecter)){
 204268c:	e13fff17 	ldw	r4,-4(fp)
 2042690:	e17ffd17 	ldw	r5,-12(fp)
 2042694:	20424ec0 	call	20424ec <fatReadSecter>
 2042698:	10001e26 	beq	r2,zero,2042714 <fatFindUnusedDirectory+0xec>
            nByteOffset = (sizeof(FAT_DIRECTORY)*nDirectoryIndex)%pVol->BPB_BytsPerSec; 
 204269c:	e0bff917 	ldw	r2,-28(fp)
 20426a0:	1006917a 	slli	r3,r2,5
 20426a4:	e0bfff17 	ldw	r2,-4(fp)
 20426a8:	10800617 	ldw	r2,24(r2)
 20426ac:	1809883a 	mov	r4,r3
 20426b0:	100b883a 	mov	r5,r2
 20426b4:	20454a80 	call	20454a8 <__umodsi3>
 20426b8:	e0bffe15 	stw	r2,-8(fp)
            pDir = (FAT_DIRECTORY *)(pVol->Secter_Data + nByteOffset);
 20426bc:	e0bffe17 	ldw	r2,-8(fp)
 20426c0:	10801004 	addi	r2,r2,64
 20426c4:	e0ffff17 	ldw	r3,-4(fp)
 20426c8:	1885883a 	add	r2,r3,r2
 20426cc:	e0bffb15 	stw	r2,-20(fp)
            if (fatIsLastDir(pDir) || fatIsUnusedDir(pDir)){
 20426d0:	e13ffb17 	ldw	r4,-20(fp)
 20426d4:	20421980 	call	2042198 <fatIsLastDir>
 20426d8:	1000031e 	bne	r2,zero,20426e8 <fatFindUnusedDirectory+0xc0>
 20426dc:	e13ffb17 	ldw	r4,-20(fp)
 20426e0:	20422840 	call	2042284 <fatIsUnusedDir>
 20426e4:	10000726 	beq	r2,zero,2042704 <fatFindUnusedDirectory+0xdc>
                bDone = TRUE;
 20426e8:	00800044 	movi	r2,1
 20426ec:	e0bffa15 	stw	r2,-24(fp)
                if (fatIsUnusedDir(pDir))
 20426f0:	e13ffb17 	ldw	r4,-20(fp)
 20426f4:	20422840 	call	2042284 <fatIsUnusedDir>
 20426f8:	10000226 	beq	r2,zero,2042704 <fatFindUnusedDirectory+0xdc>
                    Dir = nDirectoryIndex;
 20426fc:	e0bff917 	ldw	r2,-28(fp)
 2042700:	e0bff815 	stw	r2,-32(fp)
            }
            nDirectoryIndex++;        
 2042704:	e0bff917 	ldw	r2,-28(fp)
 2042708:	10800044 	addi	r2,r2,1
 204270c:	e0bff915 	stw	r2,-28(fp)
 2042710:	00000106 	br	2042718 <fatFindUnusedDirectory+0xf0>
        }else{
                bDone = FALSE;
 2042714:	e03ffa15 	stw	zero,-24(fp)
    FAT_DIRECTORY *pDir=NULL;
    alt_u32 nSecterOffset, nSecter, nByteOffset;
    alt_u32 nDirectoryIndex = 2; //??? start from ?
    bool bDone = FALSE;
             
    while(!bDone){             
 2042718:	e0bffa17 	ldw	r2,-24(fp)
 204271c:	103fce26 	beq	r2,zero,2042658 <__alt_data_end+0xfffc2658>
        }else{
                bDone = FALSE;
        }
    }             
    
    return Dir;      
 2042720:	e0bff817 	ldw	r2,-32(fp)
}
 2042724:	e037883a 	mov	sp,fp
 2042728:	dfc00117 	ldw	ra,4(sp)
 204272c:	df000017 	ldw	fp,0(sp)
 2042730:	dec00204 	addi	sp,sp,8
 2042734:	f800283a 	ret

02042738 <fatMount>:

//=================================================================================
bool fatMount(VOLUME_INFO *pVol){
 2042738:	deff7604 	addi	sp,sp,-552
 204273c:	dfc08915 	stw	ra,548(sp)
 2042740:	df008815 	stw	fp,544(sp)
 2042744:	dc008715 	stw	r16,540(sp)
 2042748:	df008804 	addi	fp,sp,544
 204274c:	e13ffe15 	stw	r4,-8(fp)
    bool bSuccess = TRUE;
 2042750:	00800044 	movi	r2,1
 2042754:	e0bf7815 	stw	r2,-544(fp)
    // 1DEh( 16 bytes): 3nd Partition Entry
    // 1EEh( 16 bytes): 4nd Partition Entry
    // 1FEh(  2 bytes): Executable Maker (55h AAh)
    
    // read first block (secotor 0), BPB(BIOS Parameter Block) or called as boot sector or reserved sector
    if (!pVol->ReadBlock512(pVol->DiskHandle, 0, szBlock)){
 2042758:	e0bffe17 	ldw	r2,-8(fp)
 204275c:	10800117 	ldw	r2,4(r2)
 2042760:	e0fffe17 	ldw	r3,-8(fp)
 2042764:	19000017 	ldw	r4,0(r3)
 2042768:	e0ff7e04 	addi	r3,fp,-520
 204276c:	000b883a 	mov	r5,zero
 2042770:	180d883a 	mov	r6,r3
 2042774:	103ee83a 	callr	r2
 2042778:	1000021e 	bne	r2,zero,2042784 <fatMount+0x4c>
        FAT_DEBUG(("Read section 0 error.\n"));
        return FALSE;
 204277c:	0005883a 	mov	r2,zero
 2042780:	0000a906 	br	2042a28 <fatMount+0x2f0>
        return FALSE;
    }
    */
        
    // check file system 
    FirstPartitionEntry = 0x1BE;
 2042784:	00806f84 	movi	r2,446
 2042788:	e0bf7915 	stw	r2,-540(fp)
    PartitionType = szBlock[FirstPartitionEntry + 4];
 204278c:	e0bf7917 	ldw	r2,-540(fp)
 2042790:	10800104 	addi	r2,r2,4
 2042794:	e0ff7e04 	addi	r3,fp,-520
 2042798:	1885883a 	add	r2,r3,r2
 204279c:	10800003 	ldbu	r2,0(r2)
 20427a0:	10803fcc 	andi	r2,r2,255
 20427a4:	e0bf7a15 	stw	r2,-536(fp)
    if (PartitionType == PARTITION_FAT16){
 20427a8:	e0bf7a17 	ldw	r2,-536(fp)
 20427ac:	108001a0 	cmpeqi	r2,r2,6
 20427b0:	1000051e 	bne	r2,zero,20427c8 <fatMount+0x90>
        FAT_DEBUG(("FAT16\n"));
    }else if (PartitionType == PARTITION_FAT32){
 20427b4:	e0bf7a17 	ldw	r2,-536(fp)
 20427b8:	108002e0 	cmpeqi	r2,r2,11
 20427bc:	1000021e 	bne	r2,zero,20427c8 <fatMount+0x90>
        FAT_DEBUG(("FAT32\n"));
    }else{        
        FAT_DEBUG(("the partition type(%d) is not supported.\n", PartitionType));
        return FALSE; // only support FAT16 in this example
 20427c0:	0005883a 	mov	r2,zero
 20427c4:	00009806 	br	2042a28 <fatMount+0x2f0>
    }       
    pVol->Partition_Type = PartitionType; 
 20427c8:	e0ff7a17 	ldw	r3,-536(fp)
 20427cc:	e0bffe17 	ldw	r2,-8(fp)
 20427d0:	10c00315 	stw	r3,12(r2)
    // 2.2 Find the first section of partition 1                    
    FirstSectionInVolume1 = fatArray2Value(&szBlock[FirstPartitionEntry + 8],4);
 20427d4:	e0bf7917 	ldw	r2,-540(fp)
 20427d8:	10800204 	addi	r2,r2,8
 20427dc:	e0ff7e04 	addi	r3,fp,-520
 20427e0:	1885883a 	add	r2,r3,r2
 20427e4:	1009883a 	mov	r4,r2
 20427e8:	01400104 	movi	r5,4
 20427ec:	20424640 	call	2042464 <fatArray2Value>
 20427f0:	e0bf7b15 	stw	r2,-532(fp)
                            //szBlock[FirstPartitionEntry + 8 + 1]*256 + 
                            //szBlock[FirstPartitionEntry + 8];        
    
    //3 Parsing the Volume Boot Record(BR)
    //3.1  Read the Volume Boot Record(BR)
    if (!pVol->ReadBlock512(pVol->DiskHandle, FirstSectionInVolume1, szBlock)){
 20427f4:	e0bffe17 	ldw	r2,-8(fp)
 20427f8:	10800117 	ldw	r2,4(r2)
 20427fc:	e0fffe17 	ldw	r3,-8(fp)
 2042800:	19000017 	ldw	r4,0(r3)
 2042804:	e17f7b17 	ldw	r5,-532(fp)
 2042808:	e0ff7e04 	addi	r3,fp,-520
 204280c:	180d883a 	mov	r6,r3
 2042810:	103ee83a 	callr	r2
 2042814:	1000021e 	bne	r2,zero,2042820 <fatMount+0xe8>
        FAT_DEBUG(("Read first sector in volume one fail.\n"));
        return FALSE;
 2042818:	0005883a 	mov	r2,zero
 204281c:	00008206 	br	2042a28 <fatMount+0x2f0>
    }        
    pVol->PartitionStartSecter = FirstSectionInVolume1;     
 2042820:	e0ff7b17 	ldw	r3,-532(fp)
 2042824:	e0bffe17 	ldw	r2,-8(fp)
 2042828:	10c00515 	stw	r3,20(r2)
    pVol->BPB_BytsPerSec = szBlock[0x0B+1]*256 + szBlock[0x0B];
 204282c:	e0bf8103 	ldbu	r2,-508(fp)
 2042830:	10803fcc 	andi	r2,r2,255
 2042834:	1006923a 	slli	r3,r2,8
 2042838:	e0bf80c3 	ldbu	r2,-509(fp)
 204283c:	10803fcc 	andi	r2,r2,255
 2042840:	1885883a 	add	r2,r3,r2
 2042844:	1007883a 	mov	r3,r2
 2042848:	e0bffe17 	ldw	r2,-8(fp)
 204284c:	10c00615 	stw	r3,24(r2)
    pVol->BPB_SecPerCluster = szBlock[0x0D];
 2042850:	e0bf8143 	ldbu	r2,-507(fp)
 2042854:	10c03fcc 	andi	r3,r2,255
 2042858:	e0bffe17 	ldw	r2,-8(fp)
 204285c:	10c00715 	stw	r3,28(r2)
    pVol->BPB_RsvdSecCnt = szBlock[0x0E + 1]*256 + szBlock[0x0E]; 
 2042860:	e0bf81c3 	ldbu	r2,-505(fp)
 2042864:	10803fcc 	andi	r2,r2,255
 2042868:	1006923a 	slli	r3,r2,8
 204286c:	e0bf8183 	ldbu	r2,-506(fp)
 2042870:	10803fcc 	andi	r2,r2,255
 2042874:	1885883a 	add	r2,r3,r2
 2042878:	1007883a 	mov	r3,r2
 204287c:	e0bffe17 	ldw	r2,-8(fp)
 2042880:	10c00815 	stw	r3,32(r2)
    pVol->BPB_NumFATs = szBlock[0x10];
 2042884:	e0bf8203 	ldbu	r2,-504(fp)
 2042888:	10c03fcc 	andi	r3,r2,255
 204288c:	e0bffe17 	ldw	r2,-8(fp)
 2042890:	10c00915 	stw	r3,36(r2)
    pVol->BPB_RootEntCnt = szBlock[0x11+1]*256 + szBlock[0x11]; 
 2042894:	e0bf8283 	ldbu	r2,-502(fp)
 2042898:	10803fcc 	andi	r2,r2,255
 204289c:	1006923a 	slli	r3,r2,8
 20428a0:	e0bf8243 	ldbu	r2,-503(fp)
 20428a4:	10803fcc 	andi	r2,r2,255
 20428a8:	1885883a 	add	r2,r3,r2
 20428ac:	1007883a 	mov	r3,r2
 20428b0:	e0bffe17 	ldw	r2,-8(fp)
 20428b4:	10c00a15 	stw	r3,40(r2)
    pVol->BPB_FATSz = szBlock[0x16+1]*256 + szBlock[0x16];
 20428b8:	e0bf83c3 	ldbu	r2,-497(fp)
 20428bc:	10803fcc 	andi	r2,r2,255
 20428c0:	1006923a 	slli	r3,r2,8
 20428c4:	e0bf8383 	ldbu	r2,-498(fp)
 20428c8:	10803fcc 	andi	r2,r2,255
 20428cc:	1885883a 	add	r2,r3,r2
 20428d0:	1007883a 	mov	r3,r2
 20428d4:	e0bffe17 	ldw	r2,-8(fp)
 20428d8:	10c00b15 	stw	r3,44(r2)
    
    // add for v2.0
    pVol->Secter_Index = -1;
 20428dc:	e0bffe17 	ldw	r2,-8(fp)
 20428e0:	00ffffc4 	movi	r3,-1
 20428e4:	10c09015 	stw	r3,576(r2)
    memset(pVol->Secter_Data, 0, MY_SECTER_SIZE); // 512 bytes
 20428e8:	e0bffe17 	ldw	r2,-8(fp)
 20428ec:	10801004 	addi	r2,r2,64
 20428f0:	1009883a 	mov	r4,r2
 20428f4:	000b883a 	mov	r5,zero
 20428f8:	01808004 	movi	r6,512
 20428fc:	20488440 	call	2048844 <memset>
    
    if (pVol->Partition_Type == PARTITION_FAT32){
 2042900:	e0bffe17 	ldw	r2,-8(fp)
 2042904:	10800317 	ldw	r2,12(r2)
 2042908:	108002d8 	cmpnei	r2,r2,11
 204290c:	1000081e 	bne	r2,zero,2042930 <fatMount+0x1f8>
        pVol->BPB_FATSz = fatArray2Value(&szBlock[0x24], 4);  // BPB_FATSz32
 2042910:	e0bf7e04 	addi	r2,fp,-520
 2042914:	10800904 	addi	r2,r2,36
 2042918:	1009883a 	mov	r4,r2
 204291c:	01400104 	movi	r5,4
 2042920:	20424640 	call	2042464 <fatArray2Value>
 2042924:	1007883a 	mov	r3,r2
 2042928:	e0bffe17 	ldw	r2,-8(fp)
 204292c:	10c00b15 	stw	r3,44(r2)
        //pVol->BPB_RootEntCnt = fatArray2Value(&szBlock[0x2C], 4);  // BPB_RootClus            
    }
    
    if (pVol->BPB_BytsPerSec != MY_SECTER_SIZE){
 2042930:	e0bffe17 	ldw	r2,-8(fp)
 2042934:	10800617 	ldw	r2,24(r2)
 2042938:	10808020 	cmpeqi	r2,r2,512
 204293c:	1000021e 	bne	r2,zero,2042948 <fatMount+0x210>
        FAT_DEBUG(("This program only supports FAT BPB_BytsPerSec == %d\n", MY_SECTER_SIZE));
        return FALSE; // only support FAT16 in this example
 2042940:	0005883a 	mov	r2,zero
 2042944:	00003806 	br	2042a28 <fatMount+0x2f0>
    FAT_DEBUG(("Number of Copyies of FAT: %02Xh(%d)\n", gVolumeInfo.BPB_NumFATs, gVolumeInfo.BPB_NumFATs));
    FAT_DEBUG(("Maxmun Root Directory Entries: %04Xh(%d)\n", gVolumeInfo.BPB_RootEntCnt, gVolumeInfo.BPB_RootEntCnt));
    FAT_DEBUG(("Sectors Per FAT: %04Xh(%d)\n", gVolumeInfo.BPB_FATSz, gVolumeInfo.BPB_FATSz));
#endif    
    //
    pVol->FatEntrySecter = pVol->PartitionStartSecter + pVol->BPB_RsvdSecCnt;
 2042948:	e0bffe17 	ldw	r2,-8(fp)
 204294c:	10c00517 	ldw	r3,20(r2)
 2042950:	e0bffe17 	ldw	r2,-8(fp)
 2042954:	10800817 	ldw	r2,32(r2)
 2042958:	1887883a 	add	r3,r3,r2
 204295c:	e0bffe17 	ldw	r2,-8(fp)
 2042960:	10c00d15 	stw	r3,52(r2)
    pVol->RootDirectoryEntrySecter = pVol->FatEntrySecter + pVol->BPB_NumFATs * pVol->BPB_FATSz;
 2042964:	e0bffe17 	ldw	r2,-8(fp)
 2042968:	10c00d17 	ldw	r3,52(r2)
 204296c:	e0bffe17 	ldw	r2,-8(fp)
 2042970:	11000917 	ldw	r4,36(r2)
 2042974:	e0bffe17 	ldw	r2,-8(fp)
 2042978:	10800b17 	ldw	r2,44(r2)
 204297c:	2085383a 	mul	r2,r4,r2
 2042980:	1887883a 	add	r3,r3,r2
 2042984:	e0bffe17 	ldw	r2,-8(fp)
 2042988:	10c00e15 	stw	r3,56(r2)
    pVol->DataEntrySecter = pVol->RootDirectoryEntrySecter + ((pVol->BPB_RootEntCnt*32)+(pVol->BPB_BytsPerSec-1))/pVol->BPB_BytsPerSec;
 204298c:	e0bffe17 	ldw	r2,-8(fp)
 2042990:	14000e17 	ldw	r16,56(r2)
 2042994:	e0bffe17 	ldw	r2,-8(fp)
 2042998:	10800a17 	ldw	r2,40(r2)
 204299c:	1006917a 	slli	r3,r2,5
 20429a0:	e0bffe17 	ldw	r2,-8(fp)
 20429a4:	10800617 	ldw	r2,24(r2)
 20429a8:	1885883a 	add	r2,r3,r2
 20429ac:	10ffffc4 	addi	r3,r2,-1
 20429b0:	e0bffe17 	ldw	r2,-8(fp)
 20429b4:	10800617 	ldw	r2,24(r2)
 20429b8:	1809883a 	mov	r4,r3
 20429bc:	100b883a 	mov	r5,r2
 20429c0:	20454a00 	call	20454a0 <__udivsi3>
 20429c4:	8087883a 	add	r3,r16,r2
 20429c8:	e0bffe17 	ldw	r2,-8(fp)
 20429cc:	10c00f15 	stw	r3,60(r2)
    
    // read FAT table into memory
    pVol->nBytesPerCluster = pVol->BPB_BytsPerSec * pVol->BPB_SecPerCluster;
 20429d0:	e0bffe17 	ldw	r2,-8(fp)
 20429d4:	10c00617 	ldw	r3,24(r2)
 20429d8:	e0bffe17 	ldw	r2,-8(fp)
 20429dc:	10800717 	ldw	r2,28(r2)
 20429e0:	1887383a 	mul	r3,r3,r2
 20429e4:	e0bffe17 	ldw	r2,-8(fp)
 20429e8:	10c00c15 	stw	r3,48(r2)
    nFatTableSecterNum = pVol->BPB_NumFATs * pVol->BPB_FATSz;
 20429ec:	e0bffe17 	ldw	r2,-8(fp)
 20429f0:	10c00917 	ldw	r3,36(r2)
 20429f4:	e0bffe17 	ldw	r2,-8(fp)
 20429f8:	10800b17 	ldw	r2,44(r2)
 20429fc:	1885383a 	mul	r2,r3,r2
 2042a00:	e0bf7c15 	stw	r2,-528(fp)
    nFatTableSize = nFatTableSecterNum * pVol->BPB_BytsPerSec;
 2042a04:	e0bffe17 	ldw	r2,-8(fp)
 2042a08:	10c00617 	ldw	r3,24(r2)
 2042a0c:	e0bf7c17 	ldw	r2,-528(fp)
 2042a10:	1885383a 	mul	r2,r3,r2
 2042a14:	e0bf7d15 	stw	r2,-524(fp)
    if (bSuccess){
        FAT_DEBUG(("Fat_Mount success\n"));
    }else{        
        FAT_DEBUG(("Fat_Mount fail\n"));
    }        
    pVol->bMount = bSuccess;
 2042a18:	e0bffe17 	ldw	r2,-8(fp)
 2042a1c:	e0ff7817 	ldw	r3,-544(fp)
 2042a20:	10c00415 	stw	r3,16(r2)
    return bSuccess;   
 2042a24:	e0bf7817 	ldw	r2,-544(fp)
    

}
 2042a28:	e6ffff04 	addi	sp,fp,-4
 2042a2c:	dfc00217 	ldw	ra,8(sp)
 2042a30:	df000117 	ldw	fp,4(sp)
 2042a34:	dc000017 	ldw	r16,0(sp)
 2042a38:	dec00304 	addi	sp,sp,12
 2042a3c:	f800283a 	ret

02042a40 <SD_ReadBlock512>:

//===================== SUPPORT_SD_CARD =================================================
#ifdef SUPPORT_SD_CARD

bool SD_ReadBlock512(DISK_HANDLE DiskHandle, alt_u32 PysicalSelector, alt_u8 szBuf[512]){
 2042a40:	defffb04 	addi	sp,sp,-20
 2042a44:	dfc00415 	stw	ra,16(sp)
 2042a48:	df000315 	stw	fp,12(sp)
 2042a4c:	df000304 	addi	fp,sp,12
 2042a50:	e13ffd15 	stw	r4,-12(fp)
 2042a54:	e17ffe15 	stw	r5,-8(fp)
 2042a58:	e1bfff15 	stw	r6,-4(fp)
    return SDLIB_ReadBlock512(PysicalSelector, szBuf);
 2042a5c:	e13ffe17 	ldw	r4,-8(fp)
 2042a60:	e17fff17 	ldw	r5,-4(fp)
 2042a64:	2043be00 	call	2043be0 <SDLIB_ReadBlock512>
}
 2042a68:	e037883a 	mov	sp,fp
 2042a6c:	dfc00117 	ldw	ra,4(sp)
 2042a70:	df000017 	ldw	fp,0(sp)
 2042a74:	dec00204 	addi	sp,sp,8
 2042a78:	f800283a 	ret

02042a7c <SD_WriteBlock512>:

bool SD_WriteBlock512(DISK_HANDLE DiskHandle, alt_u32 PysicalSelector, alt_u8 szBuf[512]){
 2042a7c:	defffb04 	addi	sp,sp,-20
 2042a80:	dfc00415 	stw	ra,16(sp)
 2042a84:	df000315 	stw	fp,12(sp)
 2042a88:	df000304 	addi	fp,sp,12
 2042a8c:	e13ffd15 	stw	r4,-12(fp)
 2042a90:	e17ffe15 	stw	r5,-8(fp)
 2042a94:	e1bfff15 	stw	r6,-4(fp)
    return SDLIB_WriteBlock512(PysicalSelector, szBuf);
 2042a98:	e13ffe17 	ldw	r4,-8(fp)
 2042a9c:	e17fff17 	ldw	r5,-4(fp)
 2042aa0:	2043c600 	call	2043c60 <SDLIB_WriteBlock512>
}
 2042aa4:	e037883a 	mov	sp,fp
 2042aa8:	dfc00117 	ldw	ra,4(sp)
 2042aac:	df000017 	ldw	fp,0(sp)
 2042ab0:	dec00204 	addi	sp,sp,8
 2042ab4:	f800283a 	ret

02042ab8 <fatMountSdcard>:

FAT_HANDLE fatMountSdcard(void){
 2042ab8:	defff804 	addi	sp,sp,-32
 2042abc:	dfc00715 	stw	ra,28(sp)
 2042ac0:	df000615 	stw	fp,24(sp)
 2042ac4:	df000604 	addi	fp,sp,24
    FAT_HANDLE hFat = 0;
 2042ac8:	e03ffa15 	stw	zero,-24(fp)
    VOLUME_INFO *pVol;
    const int nMaxTry=10;
 2042acc:	00800284 	movi	r2,10
 2042ad0:	e0bffd15 	stw	r2,-12(fp)
    bool bFind = FALSE;
 2042ad4:	e03ffb15 	stw	zero,-20(fp)
    int nTry=0;
 2042ad8:	e03ffc15 	stw	zero,-16(fp)
    bool bSuccess = TRUE;
 2042adc:	00800044 	movi	r2,1
 2042ae0:	e0bffe15 	stw	r2,-8(fp)
    
        
    //1. chek whether SD Card existed. Init SD card if it is present.
    while(!bFind && nTry++ < nMaxTry){
 2042ae4:	00000706 	br	2042b04 <fatMountSdcard+0x4c>
        bFind = SDLIB_Init();
 2042ae8:	20438ac0 	call	20438ac <SDLIB_Init>
 2042aec:	e0bffb15 	stw	r2,-20(fp)
        if (!bFind)
 2042af0:	e0bffb17 	ldw	r2,-20(fp)
 2042af4:	1000031e 	bne	r2,zero,2042b04 <fatMountSdcard+0x4c>
            usleep(100*1000);
 2042af8:	010000b4 	movhi	r4,2
 2042afc:	2121a804 	addi	r4,r4,-31072
 2042b00:	205c1100 	call	205c110 <usleep>
    int nTry=0;
    bool bSuccess = TRUE;
    
        
    //1. chek whether SD Card existed. Init SD card if it is present.
    while(!bFind && nTry++ < nMaxTry){
 2042b04:	e0bffb17 	ldw	r2,-20(fp)
 2042b08:	1000051e 	bne	r2,zero,2042b20 <fatMountSdcard+0x68>
 2042b0c:	e0bffc17 	ldw	r2,-16(fp)
 2042b10:	10c00044 	addi	r3,r2,1
 2042b14:	e0fffc15 	stw	r3,-16(fp)
 2042b18:	e0fffd17 	ldw	r3,-12(fp)
 2042b1c:	10fff216 	blt	r2,r3,2042ae8 <__alt_data_end+0xfffc2ae8>
        bFind = SDLIB_Init();
        if (!bFind)
            usleep(100*1000);
    }
    if (!bFind){
 2042b20:	e0bffb17 	ldw	r2,-20(fp)
 2042b24:	1000021e 	bne	r2,zero,2042b30 <fatMountSdcard+0x78>
        FAT_DEBUG(("Cannot find SD card.\n"));
        return hFat;
 2042b28:	e0bffa17 	ldw	r2,-24(fp)
 2042b2c:	00001a06 	br	2042b98 <fatMountSdcard+0xe0>
    }    
    
    hFat = malloc(sizeof(VOLUME_INFO));
 2042b30:	01009104 	movi	r4,580
 2042b34:	2047f3c0 	call	2047f3c <malloc>
 2042b38:	e0bffa15 	stw	r2,-24(fp)
    pVol = (VOLUME_INFO *)hFat;
 2042b3c:	e0bffa17 	ldw	r2,-24(fp)
 2042b40:	e0bfff15 	stw	r2,-4(fp)
    pVol->ReadBlock512 = SD_ReadBlock512;
 2042b44:	e0ffff17 	ldw	r3,-4(fp)
 2042b48:	00808134 	movhi	r2,516
 2042b4c:	108a9004 	addi	r2,r2,10816
 2042b50:	18800115 	stw	r2,4(r3)
    pVol->WriteBlock512 = SD_WriteBlock512;
 2042b54:	e0ffff17 	ldw	r3,-4(fp)
 2042b58:	00808134 	movhi	r2,516
 2042b5c:	108a9f04 	addi	r2,r2,10876
 2042b60:	18800215 	stw	r2,8(r3)
    bSuccess = fatMount(pVol);
 2042b64:	e13fff17 	ldw	r4,-4(fp)
 2042b68:	20427380 	call	2042738 <fatMount>
 2042b6c:	e0bffe15 	stw	r2,-8(fp)
        
    
  
    if (bSuccess){
 2042b70:	e0bffe17 	ldw	r2,-8(fp)
 2042b74:	10000426 	beq	r2,zero,2042b88 <fatMountSdcard+0xd0>
        FAT_DEBUG(("Fat_Mount success\n"));
        pVol->bMount = TRUE;
 2042b78:	e0bfff17 	ldw	r2,-4(fp)
 2042b7c:	00c00044 	movi	r3,1
 2042b80:	10c00415 	stw	r3,16(r2)
 2042b84:	00000306 	br	2042b94 <fatMountSdcard+0xdc>
    }else{        
        FAT_DEBUG(("Fat_Mount fail\n"));
        free((void *)hFat);
 2042b88:	e13ffa17 	ldw	r4,-24(fp)
 2042b8c:	2047f500 	call	2047f50 <free>
        hFat = 0;
 2042b90:	e03ffa15 	stw	zero,-24(fp)
    }        

    return hFat;   
 2042b94:	e0bffa17 	ldw	r2,-24(fp)
}
 2042b98:	e037883a 	mov	sp,fp
 2042b9c:	dfc00117 	ldw	ra,4(sp)
 2042ba0:	df000017 	ldw	fp,0(sp)
 2042ba4:	dec00204 	addi	sp,sp,8
 2042ba8:	f800283a 	ret

02042bac <debug_output>:
    UART_WriteString(pMessage);  // UART debug
}

#else

void debug_output(char *pMessage){
 2042bac:	defffd04 	addi	sp,sp,-12
 2042bb0:	dfc00215 	stw	ra,8(sp)
 2042bb4:	df000115 	stw	fp,4(sp)
 2042bb8:	df000104 	addi	fp,sp,4
 2042bbc:	e13fff15 	stw	r4,-4(fp)
    
    printf(pMessage);
 2042bc0:	e13fff17 	ldw	r4,-4(fp)
 2042bc4:	20489f00 	call	20489f0 <printf>
}
 2042bc8:	e037883a 	mov	sp,fp
 2042bcc:	dfc00117 	ldw	ra,4(sp)
 2042bd0:	df000017 	ldw	fp,0(sp)
 2042bd4:	dec00204 	addi	sp,sp,8
 2042bd8:	f800283a 	ret

02042bdc <myprintf>:





int myprintf(char *format, ...){
 2042bdc:	deff7804 	addi	sp,sp,-544
 2042be0:	dfc08415 	stw	ra,528(sp)
 2042be4:	df008315 	stw	fp,524(sp)
 2042be8:	df008304 	addi	fp,sp,524
 2042bec:	e1400215 	stw	r5,8(fp)
 2042bf0:	e1800315 	stw	r6,12(fp)
 2042bf4:	e1c00415 	stw	r7,16(fp)
 2042bf8:	e13fff15 	stw	r4,-4(fp)
    int rc;
    char szText[512];
    
    va_list paramList;
    va_start(paramList, format);
 2042bfc:	e0800204 	addi	r2,fp,8
 2042c00:	e0bffe15 	stw	r2,-8(fp)
    rc = vsnprintf(szText, 512, format, paramList);
 2042c04:	e0bffe17 	ldw	r2,-8(fp)
 2042c08:	e0ff7e04 	addi	r3,fp,-520
 2042c0c:	1809883a 	mov	r4,r3
 2042c10:	01408004 	movi	r5,512
 2042c14:	e1bfff17 	ldw	r6,-4(fp)
 2042c18:	100f883a 	mov	r7,r2
 2042c1c:	204e9800 	call	204e980 <vsnprintf>
 2042c20:	e0bf7d15 	stw	r2,-524(fp)
    va_end(paramList);
    
    debug_output(szText);
 2042c24:	e0bf7e04 	addi	r2,fp,-520
 2042c28:	1009883a 	mov	r4,r2
 2042c2c:	2042bac0 	call	2042bac <debug_output>

    return rc;    
 2042c30:	e0bf7d17 	ldw	r2,-524(fp)
}
 2042c34:	e037883a 	mov	sp,fp
 2042c38:	dfc00117 	ldw	ra,4(sp)
 2042c3c:	df000017 	ldw	fp,0(sp)
 2042c40:	dec00504 	addi	sp,sp,20
 2042c44:	f800283a 	ret

02042c48 <myprintf_hexarray>:


int myprintf_hexarray(unsigned char *pHex, int len){
 2042c48:	defff704 	addi	sp,sp,-36
 2042c4c:	dfc00815 	stw	ra,32(sp)
 2042c50:	df000715 	stw	fp,28(sp)
 2042c54:	df000704 	addi	fp,sp,28
 2042c58:	e13ffe15 	stw	r4,-8(fp)
 2042c5c:	e17fff15 	stw	r5,-4(fp)
    int i;
    unsigned char szText[16];
    for(i=0;i<len;i++){
 2042c60:	e03ff915 	stw	zero,-28(fp)
 2042c64:	00001106 	br	2042cac <myprintf_hexarray+0x64>
        sprintf(szText, "[%02X]", *(pHex+i));
 2042c68:	e0bff917 	ldw	r2,-28(fp)
 2042c6c:	e0fffe17 	ldw	r3,-8(fp)
 2042c70:	1885883a 	add	r2,r3,r2
 2042c74:	10800003 	ldbu	r2,0(r2)
 2042c78:	10803fcc 	andi	r2,r2,255
 2042c7c:	e0fffa04 	addi	r3,fp,-24
 2042c80:	1809883a 	mov	r4,r3
 2042c84:	014081b4 	movhi	r5,518
 2042c88:	2947bc04 	addi	r5,r5,7920
 2042c8c:	100d883a 	mov	r6,r2
 2042c90:	2048df00 	call	2048df0 <sprintf>
        DEBUG((szText));
 2042c94:	e0bffa04 	addi	r2,fp,-24
 2042c98:	1009883a 	mov	r4,r2
 2042c9c:	2042bdc0 	call	2042bdc <myprintf>


int myprintf_hexarray(unsigned char *pHex, int len){
    int i;
    unsigned char szText[16];
    for(i=0;i<len;i++){
 2042ca0:	e0bff917 	ldw	r2,-28(fp)
 2042ca4:	10800044 	addi	r2,r2,1
 2042ca8:	e0bff915 	stw	r2,-28(fp)
 2042cac:	e0fff917 	ldw	r3,-28(fp)
 2042cb0:	e0bfff17 	ldw	r2,-4(fp)
 2042cb4:	18bfec16 	blt	r3,r2,2042c68 <__alt_data_end+0xfffc2c68>
        sprintf(szText, "[%02X]", *(pHex+i));
        DEBUG((szText));
    }
    return len;
 2042cb8:	e0bfff17 	ldw	r2,-4(fp)
}
 2042cbc:	e037883a 	mov	sp,fp
 2042cc0:	dfc00117 	ldw	ra,4(sp)
 2042cc4:	df000017 	ldw	fp,0(sp)
 2042cc8:	dec00204 	addi	sp,sp,8
 2042ccc:	f800283a 	ret

02042cd0 <myprintf_dwordarray>:

int  myprintf_dwordarray(unsigned int *pArray, int nElementCount){
 2042cd0:	defff704 	addi	sp,sp,-36
 2042cd4:	dfc00815 	stw	ra,32(sp)
 2042cd8:	df000715 	stw	fp,28(sp)
 2042cdc:	df000704 	addi	fp,sp,28
 2042ce0:	e13ffe15 	stw	r4,-8(fp)
 2042ce4:	e17fff15 	stw	r5,-4(fp)
    int i;
    char szText[16];
    for(i=0;i<nElementCount;i++){
 2042ce8:	e03ff915 	stw	zero,-28(fp)
 2042cec:	00001306 	br	2042d3c <myprintf_dwordarray+0x6c>
        sprintf(szText, "[%08X]", *(pArray+i));
 2042cf0:	e0bff917 	ldw	r2,-28(fp)
 2042cf4:	1085883a 	add	r2,r2,r2
 2042cf8:	1085883a 	add	r2,r2,r2
 2042cfc:	1007883a 	mov	r3,r2
 2042d00:	e0bffe17 	ldw	r2,-8(fp)
 2042d04:	10c5883a 	add	r2,r2,r3
 2042d08:	10800017 	ldw	r2,0(r2)
 2042d0c:	e0fffa04 	addi	r3,fp,-24
 2042d10:	1809883a 	mov	r4,r3
 2042d14:	014081b4 	movhi	r5,518
 2042d18:	2947be04 	addi	r5,r5,7928
 2042d1c:	100d883a 	mov	r6,r2
 2042d20:	2048df00 	call	2048df0 <sprintf>
        DEBUG((szText));
 2042d24:	e0bffa04 	addi	r2,fp,-24
 2042d28:	1009883a 	mov	r4,r2
 2042d2c:	2042bdc0 	call	2042bdc <myprintf>
}

int  myprintf_dwordarray(unsigned int *pArray, int nElementCount){
    int i;
    char szText[16];
    for(i=0;i<nElementCount;i++){
 2042d30:	e0bff917 	ldw	r2,-28(fp)
 2042d34:	10800044 	addi	r2,r2,1
 2042d38:	e0bff915 	stw	r2,-28(fp)
 2042d3c:	e0fff917 	ldw	r3,-28(fp)
 2042d40:	e0bfff17 	ldw	r2,-4(fp)
 2042d44:	18bfea16 	blt	r3,r2,2042cf0 <__alt_data_end+0xfffc2cf0>
        sprintf(szText, "[%08X]", *(pArray+i));
        DEBUG((szText));
    }
    return nElementCount;
 2042d48:	e0bfff17 	ldw	r2,-4(fp)
}
 2042d4c:	e037883a 	mov	sp,fp
 2042d50:	dfc00117 	ldw	ra,4(sp)
 2042d54:	df000017 	ldw	fp,0(sp)
 2042d58:	dec00204 	addi	sp,sp,8
 2042d5c:	f800283a 	ret

02042d60 <crc16>:
    0x7c26,0x6c07,0x5c64,0x4c45,0x3ca2,0x2c83,0x1ce0,0x0cc1,
    0xef1f,0xff3e,0xcf5d,0xdf7c,0xaf9b,0xbfba,0x8fd9,0x9ff8,
    0x6e17,0x7e36,0x4e55,0x5e74,0x2e93,0x3eb2,0x0ed1,0x1ef0
};
  
alt_u16 crc16(const alt_u8 *buffer, int len){
 2042d60:	defffb04 	addi	sp,sp,-20
 2042d64:	df000415 	stw	fp,16(sp)
 2042d68:	df000404 	addi	fp,sp,16
 2042d6c:	e13ffe15 	stw	r4,-8(fp)
 2042d70:	e17fff15 	stw	r5,-4(fp)

    int counter;
    alt_u16 crc = 0;
 2042d74:	e03ffd0d 	sth	zero,-12(fp)
    for( counter = 0; counter < len; counter++)
 2042d78:	e03ffc15 	stw	zero,-16(fp)
 2042d7c:	00001906 	br	2042de4 <crc16+0x84>
        crc = (crc<<8) ^ crc16tab[((crc>>8) ^ *(char *)buffer++)&0x00FF];
 2042d80:	e0bffd0b 	ldhu	r2,-12(fp)
 2042d84:	1004923a 	slli	r2,r2,8
 2042d88:	100b883a 	mov	r5,r2
 2042d8c:	e0bffd0b 	ldhu	r2,-12(fp)
 2042d90:	1004d23a 	srli	r2,r2,8
 2042d94:	10ffffcc 	andi	r3,r2,65535
 2042d98:	e0bffe17 	ldw	r2,-8(fp)
 2042d9c:	11000044 	addi	r4,r2,1
 2042da0:	e13ffe15 	stw	r4,-8(fp)
 2042da4:	10800003 	ldbu	r2,0(r2)
 2042da8:	10803fcc 	andi	r2,r2,255
 2042dac:	1080201c 	xori	r2,r2,128
 2042db0:	10bfe004 	addi	r2,r2,-128
 2042db4:	1884f03a 	xor	r2,r3,r2
 2042db8:	10c03fcc 	andi	r3,r2,255
 2042dbc:	008081b4 	movhi	r2,518
 2042dc0:	1087c004 	addi	r2,r2,7936
 2042dc4:	18c7883a 	add	r3,r3,r3
 2042dc8:	10c5883a 	add	r2,r2,r3
 2042dcc:	1080000b 	ldhu	r2,0(r2)
 2042dd0:	2884f03a 	xor	r2,r5,r2
 2042dd4:	e0bffd0d 	sth	r2,-12(fp)
  
alt_u16 crc16(const alt_u8 *buffer, int len){

    int counter;
    alt_u16 crc = 0;
    for( counter = 0; counter < len; counter++)
 2042dd8:	e0bffc17 	ldw	r2,-16(fp)
 2042ddc:	10800044 	addi	r2,r2,1
 2042de0:	e0bffc15 	stw	r2,-16(fp)
 2042de4:	e0fffc17 	ldw	r3,-16(fp)
 2042de8:	e0bfff17 	ldw	r2,-4(fp)
 2042dec:	18bfe416 	blt	r3,r2,2042d80 <__alt_data_end+0xfffc2d80>
        crc = (crc<<8) ^ crc16tab[((crc>>8) ^ *(char *)buffer++)&0x00FF];
    return crc;
 2042df0:	e0bffd0b 	ldhu	r2,-12(fp)
}
 2042df4:	e037883a 	mov	sp,fp
 2042df8:	df000017 	ldw	fp,0(sp)
 2042dfc:	dec00104 	addi	sp,sp,4
 2042e00:	f800283a 	ret

02042e04 <crc7_byte>:
      0x0e, 0x07, 0x1c, 0x15, 0x2a, 0x23, 0x38, 0x31,
      0x46, 0x4f, 0x54, 0x5d, 0x62, 0x6b, 0x70, 0x79
};

alt_u8 crc7_byte(alt_u8 crc, alt_u8 data)
{
 2042e04:	defffd04 	addi	sp,sp,-12
 2042e08:	df000215 	stw	fp,8(sp)
 2042e0c:	df000204 	addi	fp,sp,8
 2042e10:	2007883a 	mov	r3,r4
 2042e14:	2805883a 	mov	r2,r5
 2042e18:	e0fffe05 	stb	r3,-8(fp)
 2042e1c:	e0bfff05 	stb	r2,-4(fp)
        return crc7_syndrome_table[(crc << 1) ^ data];
 2042e20:	e0bffe03 	ldbu	r2,-8(fp)
 2042e24:	1085883a 	add	r2,r2,r2
 2042e28:	1007883a 	mov	r3,r2
 2042e2c:	e0bfff03 	ldbu	r2,-4(fp)
 2042e30:	1886f03a 	xor	r3,r3,r2
 2042e34:	008081b4 	movhi	r2,518
 2042e38:	10884004 	addi	r2,r2,8448
 2042e3c:	10c5883a 	add	r2,r2,r3
 2042e40:	10800003 	ldbu	r2,0(r2)
}
 2042e44:	e037883a 	mov	sp,fp
 2042e48:	df000017 	ldw	fp,0(sp)
 2042e4c:	dec00104 	addi	sp,sp,4
 2042e50:	f800283a 	ret

02042e54 <crc7>:
 * Context: any
 *
 * Returns the updated CRC7 value.
 */
alt_u8 crc7(alt_u8 crc, const alt_u8 *buffer, int len)
{
 2042e54:	defffb04 	addi	sp,sp,-20
 2042e58:	dfc00415 	stw	ra,16(sp)
 2042e5c:	df000315 	stw	fp,12(sp)
 2042e60:	df000304 	addi	fp,sp,12
 2042e64:	2005883a 	mov	r2,r4
 2042e68:	e17ffe15 	stw	r5,-8(fp)
 2042e6c:	e1bfff15 	stw	r6,-4(fp)
 2042e70:	e0bffd05 	stb	r2,-12(fp)
      while (len--)
 2042e74:	00000906 	br	2042e9c <crc7+0x48>
            crc = crc7_byte(crc, *buffer++);
 2042e78:	e13ffd03 	ldbu	r4,-12(fp)
 2042e7c:	e0bffe17 	ldw	r2,-8(fp)
 2042e80:	10c00044 	addi	r3,r2,1
 2042e84:	e0fffe15 	stw	r3,-8(fp)
 2042e88:	10800003 	ldbu	r2,0(r2)
 2042e8c:	10803fcc 	andi	r2,r2,255
 2042e90:	100b883a 	mov	r5,r2
 2042e94:	2042e040 	call	2042e04 <crc7_byte>
 2042e98:	e0bffd05 	stb	r2,-12(fp)
 *
 * Returns the updated CRC7 value.
 */
alt_u8 crc7(alt_u8 crc, const alt_u8 *buffer, int len)
{
      while (len--)
 2042e9c:	e0bfff17 	ldw	r2,-4(fp)
 2042ea0:	10ffffc4 	addi	r3,r2,-1
 2042ea4:	e0ffff15 	stw	r3,-4(fp)
 2042ea8:	103ff31e 	bne	r2,zero,2042e78 <__alt_data_end+0xfffc2e78>
            crc = crc7_byte(crc, *buffer++);
      return crc;
 2042eac:	e0bffd03 	ldbu	r2,-12(fp)
}
 2042eb0:	e037883a 	mov	sp,fp
 2042eb4:	dfc00117 	ldw	ra,4(sp)
 2042eb8:	df000017 	ldw	fp,0(sp)
 2042ebc:	dec00204 	addi	sp,sp,8
 2042ec0:	f800283a 	ret

02042ec4 <SDHAL_IsSupport4Bits>:
#include "sd_hal.h"
#include "sd_hw.h"
#include "crc16.h"


bool SDHAL_IsSupport4Bits(void){
 2042ec4:	defffe04 	addi	sp,sp,-8
 2042ec8:	df000115 	stw	fp,4(sp)
 2042ecc:	df000104 	addi	fp,sp,4
    bool bYes = FALSE;
 2042ed0:	e03fff15 	stw	zero,-4(fp)
#ifdef SD_4BIT_MODE
    bYes = TRUE;
 2042ed4:	00800044 	movi	r2,1
 2042ed8:	e0bfff15 	stw	r2,-4(fp)
#endif    
    return bYes;
 2042edc:	e0bfff17 	ldw	r2,-4(fp)
}
 2042ee0:	e037883a 	mov	sp,fp
 2042ee4:	df000017 	ldw	fp,0(sp)
 2042ee8:	dec00104 	addi	sp,sp,4
 2042eec:	f800283a 	ret

02042ef0 <SDHAL_Init>:

void SDHAL_Init(void){
 2042ef0:	deffff04 	addi	sp,sp,-4
 2042ef4:	df000015 	stw	fp,0(sp)
 2042ef8:	d839883a 	mov	fp,sp
    SD_CMD_OUT;
 2042efc:	00c00044 	movi	r3,1
 2042f00:	00802504 	movi	r2,148
 2042f04:	10c00035 	stwio	r3,0(r2)
    SD_DAT_IN;
 2042f08:	0007883a 	mov	r3,zero
 2042f0c:	00802904 	movi	r2,164
 2042f10:	10c00035 	stwio	r3,0(r2)
    SD_CLK_HIGH;
 2042f14:	00c00044 	movi	r3,1
 2042f18:	00802004 	movi	r2,128
 2042f1c:	10c00035 	stwio	r3,0(r2)
    SD_CMD_HIGH;
 2042f20:	00c00044 	movi	r3,1
 2042f24:	00802404 	movi	r2,144
 2042f28:	10c00035 	stwio	r3,0(r2)
    SD_DAT_LOW;    
 2042f2c:	0007883a 	mov	r3,zero
 2042f30:	00802804 	movi	r2,160
 2042f34:	10c00035 	stwio	r3,0(r2)
}
 2042f38:	e037883a 	mov	sp,fp
 2042f3c:	df000017 	ldw	fp,0(sp)
 2042f40:	dec00104 	addi	sp,sp,4
 2042f44:	f800283a 	ret

02042f48 <SDHAL_SendCmd>:

void SDHAL_SendCmd(alt_u8 szCommand[6], int nCmdLen){
 2042f48:	defffa04 	addi	sp,sp,-24
 2042f4c:	df000515 	stw	fp,20(sp)
 2042f50:	df000504 	addi	fp,sp,20
 2042f54:	e13ffe15 	stw	r4,-8(fp)
 2042f58:	e17fff15 	stw	r5,-4(fp)

    int i, k;
    alt_u8 Mask, Data;
    
    SD_CMD_OUT;
 2042f5c:	00c00044 	movi	r3,1
 2042f60:	00802504 	movi	r2,148
 2042f64:	10c00035 	stwio	r3,0(r2)
    for(i=0;i<nCmdLen;i++){
 2042f68:	e03ffb15 	stw	zero,-20(fp)
 2042f6c:	00002706 	br	204300c <SDHAL_SendCmd+0xc4>
        Mask = 0x80;
 2042f70:	00bfe004 	movi	r2,-128
 2042f74:	e0bffd05 	stb	r2,-12(fp)
        Data = szCommand[i];
 2042f78:	e0bffb17 	ldw	r2,-20(fp)
 2042f7c:	e0fffe17 	ldw	r3,-8(fp)
 2042f80:	1885883a 	add	r2,r3,r2
 2042f84:	10800003 	ldbu	r2,0(r2)
 2042f88:	e0bffd45 	stb	r2,-11(fp)
        for(k=0;k<8;k++){
 2042f8c:	e03ffc15 	stw	zero,-16(fp)
 2042f90:	00001806 	br	2042ff4 <SDHAL_SendCmd+0xac>
            SD_CLK_LOW;
 2042f94:	0007883a 	mov	r3,zero
 2042f98:	00802004 	movi	r2,128
 2042f9c:	10c00035 	stwio	r3,0(r2)
            if (Data & Mask)
 2042fa0:	e0fffd43 	ldbu	r3,-11(fp)
 2042fa4:	e0bffd03 	ldbu	r2,-12(fp)
 2042fa8:	1884703a 	and	r2,r3,r2
 2042fac:	10803fcc 	andi	r2,r2,255
 2042fb0:	10000426 	beq	r2,zero,2042fc4 <SDHAL_SendCmd+0x7c>
                SD_CMD_HIGH;
 2042fb4:	00c00044 	movi	r3,1
 2042fb8:	00802404 	movi	r2,144
 2042fbc:	10c00035 	stwio	r3,0(r2)
 2042fc0:	00000306 	br	2042fd0 <SDHAL_SendCmd+0x88>
            else
                SD_CMD_LOW;
 2042fc4:	0007883a 	mov	r3,zero
 2042fc8:	00802404 	movi	r2,144
 2042fcc:	10c00035 	stwio	r3,0(r2)
            SD_CLK_HIGH;    
 2042fd0:	00c00044 	movi	r3,1
 2042fd4:	00802004 	movi	r2,128
 2042fd8:	10c00035 	stwio	r3,0(r2)
            //    
            Mask >>= 1;
 2042fdc:	e0bffd03 	ldbu	r2,-12(fp)
 2042fe0:	1004d07a 	srli	r2,r2,1
 2042fe4:	e0bffd05 	stb	r2,-12(fp)
    
    SD_CMD_OUT;
    for(i=0;i<nCmdLen;i++){
        Mask = 0x80;
        Data = szCommand[i];
        for(k=0;k<8;k++){
 2042fe8:	e0bffc17 	ldw	r2,-16(fp)
 2042fec:	10800044 	addi	r2,r2,1
 2042ff0:	e0bffc15 	stw	r2,-16(fp)
 2042ff4:	e0bffc17 	ldw	r2,-16(fp)
 2042ff8:	10800210 	cmplti	r2,r2,8
 2042ffc:	103fe51e 	bne	r2,zero,2042f94 <__alt_data_end+0xfffc2f94>

    int i, k;
    alt_u8 Mask, Data;
    
    SD_CMD_OUT;
    for(i=0;i<nCmdLen;i++){
 2043000:	e0bffb17 	ldw	r2,-20(fp)
 2043004:	10800044 	addi	r2,r2,1
 2043008:	e0bffb15 	stw	r2,-20(fp)
 204300c:	e0fffb17 	ldw	r3,-20(fp)
 2043010:	e0bfff17 	ldw	r2,-4(fp)
 2043014:	18bfd616 	blt	r3,r2,2042f70 <__alt_data_end+0xfffc2f70>
            //    
            Mask >>= 1;
           // usleep(1);
        }
    }
}
 2043018:	e037883a 	mov	sp,fp
 204301c:	df000017 	ldw	fp,0(sp)
 2043020:	dec00104 	addi	sp,sp,4
 2043024:	f800283a 	ret

02043028 <SDHAL_GetResponse>:




bool SDHAL_GetResponse(alt_u8 szResponse[], int nLen){
 2043028:	defff504 	addi	sp,sp,-44
 204302c:	dfc00a15 	stw	ra,40(sp)
 2043030:	df000915 	stw	fp,36(sp)
 2043034:	df000904 	addi	fp,sp,36
 2043038:	e13ffe15 	stw	r4,-8(fp)
 204303c:	e17fff15 	stw	r5,-4(fp)
    bool bDone, bTimeout;
    const int nMaxCnt = 20; // !!!! Note. the value should be large than 8
 2043040:	00800504 	movi	r2,20
 2043044:	e0bffc15 	stw	r2,-16(fp)
    int nCnt, nBitCnt, nIndex;
    alt_u8 Value;
    

    SD_CMD_IN;
 2043048:	0007883a 	mov	r3,zero
 204304c:	00802504 	movi	r2,148
 2043050:	10c00035 	stwio	r3,0(r2)
    
    //===== check start bit == 0
    nCnt = 0;
 2043054:	e03ff915 	stw	zero,-28(fp)
    bDone = FALSE;
 2043058:	e03ff715 	stw	zero,-36(fp)
    bTimeout = FALSE;
 204305c:	e03ff815 	stw	zero,-32(fp)
    while(!bDone && !bTimeout){
 2043060:	00001306 	br	20430b0 <SDHAL_GetResponse+0x88>
        SD_CLK_LOW;
 2043064:	0007883a 	mov	r3,zero
 2043068:	00802004 	movi	r2,128
 204306c:	10c00035 	stwio	r3,0(r2)
        SD_CLK_HIGH;
 2043070:	00c00044 	movi	r3,1
 2043074:	00802004 	movi	r2,128
 2043078:	10c00035 	stwio	r3,0(r2)
        if(!(SD_TEST_CMD))
 204307c:	00802404 	movi	r2,144
 2043080:	10800037 	ldwio	r2,0(r2)
 2043084:	1000031e 	bne	r2,zero,2043094 <SDHAL_GetResponse+0x6c>
            bDone = TRUE;
 2043088:	00800044 	movi	r2,1
 204308c:	e0bff715 	stw	r2,-36(fp)
 2043090:	00000706 	br	20430b0 <SDHAL_GetResponse+0x88>
        else if(nCnt++ > nMaxCnt)
 2043094:	e0bff917 	ldw	r2,-28(fp)
 2043098:	10c00044 	addi	r3,r2,1
 204309c:	e0fff915 	stw	r3,-28(fp)
 20430a0:	e0fffc17 	ldw	r3,-16(fp)
 20430a4:	1880020e 	bge	r3,r2,20430b0 <SDHAL_GetResponse+0x88>
            bTimeout = TRUE;
 20430a8:	00800044 	movi	r2,1
 20430ac:	e0bff815 	stw	r2,-32(fp)
    
    //===== check start bit == 0
    nCnt = 0;
    bDone = FALSE;
    bTimeout = FALSE;
    while(!bDone && !bTimeout){
 20430b0:	e0bff717 	ldw	r2,-36(fp)
 20430b4:	1000021e 	bne	r2,zero,20430c0 <SDHAL_GetResponse+0x98>
 20430b8:	e0bff817 	ldw	r2,-32(fp)
 20430bc:	103fe926 	beq	r2,zero,2043064 <__alt_data_end+0xfffc3064>
            bDone = TRUE;
        else if(nCnt++ > nMaxCnt)
            bTimeout = TRUE;
    }
    
    if (!bDone || bTimeout)
 20430c0:	e0bff717 	ldw	r2,-36(fp)
 20430c4:	10000226 	beq	r2,zero,20430d0 <SDHAL_GetResponse+0xa8>
 20430c8:	e0bff817 	ldw	r2,-32(fp)
 20430cc:	10000226 	beq	r2,zero,20430d8 <SDHAL_GetResponse+0xb0>
        return FALSE;
 20430d0:	0005883a 	mov	r2,zero
 20430d4:	00004a06 	br	2043200 <SDHAL_GetResponse+0x1d8>
  
    //===== check transmitter bit == 0

    SD_CLK_LOW;
 20430d8:	0007883a 	mov	r3,zero
 20430dc:	00802004 	movi	r2,128
 20430e0:	10c00035 	stwio	r3,0(r2)
    SD_CLK_HIGH;
 20430e4:	00c00044 	movi	r3,1
 20430e8:	00802004 	movi	r2,128
 20430ec:	10c00035 	stwio	r3,0(r2)
    if (SD_TEST_CMD)
 20430f0:	00802404 	movi	r2,144
 20430f4:	10800037 	ldwio	r2,0(r2)
 20430f8:	10000226 	beq	r2,zero,2043104 <SDHAL_GetResponse+0xdc>
        return FALSE;   // 0 is expected
 20430fc:	0005883a 	mov	r2,zero
 2043100:	00003f06 	br	2043200 <SDHAL_GetResponse+0x1d8>

    
    //===== read content + CRC + end-bits ======
    nIndex = 2;
 2043104:	00800084 	movi	r2,2
 2043108:	e0bffa15 	stw	r2,-24(fp)
    nBitCnt = nLen*8;
 204310c:	e0bfff17 	ldw	r2,-4(fp)
 2043110:	100490fa 	slli	r2,r2,3
 2043114:	e0bffd15 	stw	r2,-12(fp)
    bDone = FALSE;
 2043118:	e03ff715 	stw	zero,-36(fp)
    Value = 0;
 204311c:	e03ffb05 	stb	zero,-20(fp)
    while(nIndex < nBitCnt){
 2043120:	00003106 	br	20431e8 <SDHAL_GetResponse+0x1c0>
        SD_CLK_LOW;
 2043124:	0007883a 	mov	r3,zero
 2043128:	00802004 	movi	r2,128
 204312c:	10c00035 	stwio	r3,0(r2)
        SD_CLK_HIGH;
 2043130:	00c00044 	movi	r3,1
 2043134:	00802004 	movi	r2,128
 2043138:	10c00035 	stwio	r3,0(r2)
        if (SD_TEST_CMD){
 204313c:	00802404 	movi	r2,144
 2043140:	10800037 	ldwio	r2,0(r2)
 2043144:	10001026 	beq	r2,zero,2043188 <SDHAL_GetResponse+0x160>
            Value |= 0x80 >> (nIndex % 8);
 2043148:	e0fffa17 	ldw	r3,-24(fp)
 204314c:	00a00034 	movhi	r2,32768
 2043150:	108001c4 	addi	r2,r2,7
 2043154:	1884703a 	and	r2,r3,r2
 2043158:	1000040e 	bge	r2,zero,204316c <SDHAL_GetResponse+0x144>
 204315c:	10bfffc4 	addi	r2,r2,-1
 2043160:	00fffe04 	movi	r3,-8
 2043164:	10c4b03a 	or	r2,r2,r3
 2043168:	10800044 	addi	r2,r2,1
 204316c:	1007883a 	mov	r3,r2
 2043170:	00802004 	movi	r2,128
 2043174:	10c5d83a 	sra	r2,r2,r3
 2043178:	1007883a 	mov	r3,r2
 204317c:	e0bffb03 	ldbu	r2,-20(fp)
 2043180:	1884b03a 	or	r2,r3,r2
 2043184:	e0bffb05 	stb	r2,-20(fp)
        }
        if (nIndex%8 == 7){
 2043188:	e0fffa17 	ldw	r3,-24(fp)
 204318c:	00a00034 	movhi	r2,32768
 2043190:	108001c4 	addi	r2,r2,7
 2043194:	1884703a 	and	r2,r3,r2
 2043198:	1000040e 	bge	r2,zero,20431ac <SDHAL_GetResponse+0x184>
 204319c:	10bfffc4 	addi	r2,r2,-1
 20431a0:	00fffe04 	movi	r3,-8
 20431a4:	10c4b03a 	or	r2,r2,r3
 20431a8:	10800044 	addi	r2,r2,1
 20431ac:	108001d8 	cmpnei	r2,r2,7
 20431b0:	10000a1e 	bne	r2,zero,20431dc <SDHAL_GetResponse+0x1b4>
            szResponse[nIndex/8] = Value;
 20431b4:	e0bffa17 	ldw	r2,-24(fp)
 20431b8:	1000010e 	bge	r2,zero,20431c0 <SDHAL_GetResponse+0x198>
 20431bc:	108001c4 	addi	r2,r2,7
 20431c0:	1005d0fa 	srai	r2,r2,3
 20431c4:	1007883a 	mov	r3,r2
 20431c8:	e0bffe17 	ldw	r2,-8(fp)
 20431cc:	10c5883a 	add	r2,r2,r3
 20431d0:	e0fffb03 	ldbu	r3,-20(fp)
 20431d4:	10c00005 	stb	r3,0(r2)
            Value = 0;
 20431d8:	e03ffb05 	stb	zero,-20(fp)
        }
        nIndex++;
 20431dc:	e0bffa17 	ldw	r2,-24(fp)
 20431e0:	10800044 	addi	r2,r2,1
 20431e4:	e0bffa15 	stw	r2,-24(fp)
    //===== read content + CRC + end-bits ======
    nIndex = 2;
    nBitCnt = nLen*8;
    bDone = FALSE;
    Value = 0;
    while(nIndex < nBitCnt){
 20431e8:	e0fffa17 	ldw	r3,-24(fp)
 20431ec:	e0bffd17 	ldw	r2,-12(fp)
 20431f0:	18bfcc16 	blt	r3,r2,2043124 <__alt_data_end+0xfffc3124>
        }
        nIndex++;
    } 
    
    // A command with response. 8 clocks after the card response end bit.
    SDHAL_DummyClock(8);
 20431f4:	01000204 	movi	r4,8
 20431f8:	20438540 	call	2043854 <SDHAL_DummyClock>
    
    return TRUE;
 20431fc:	00800044 	movi	r2,1
}
 2043200:	e037883a 	mov	sp,fp
 2043204:	dfc00117 	ldw	ra,4(sp)
 2043208:	df000017 	ldw	fp,0(sp)
 204320c:	dec00204 	addi	sp,sp,8
 2043210:	f800283a 	ret

02043214 <SDHAL_ReadData>:


bool SDHAL_ReadData(alt_u8 szBuf[], int nBufLen){
 2043214:	deff6e04 	addi	sp,sp,-584
 2043218:	dfc09115 	stw	ra,580(sp)
 204321c:	df009015 	stw	fp,576(sp)
 2043220:	df009004 	addi	fp,sp,576
 2043224:	e13ffe15 	stw	r4,-8(fp)
 2043228:	e17fff15 	stw	r5,-4(fp)
    bool bSuccess = TRUE;
 204322c:	00800044 	movi	r2,1
 2043230:	e0bf7015 	stw	r2,-576(fp)
    int nTry = 0;
 2043234:	e03f7115 	stw	zero,-572(fp)
    const int nMaxTry = 5000; 
 2043238:	0084e204 	movi	r2,5000
 204323c:	e0bf7a15 	stw	r2,-536(fp)
    int i, j,k,n=0;   
 2043240:	e03f7515 	stw	zero,-556(fp)
    
    alt_u8 Data8_0,Data8_1,Data8_2,Data8_3;
    
#endif    
    
    SD_DAT_IN;
 2043244:	0007883a 	mov	r3,zero
 2043248:	00802904 	movi	r2,164
 204324c:	10c00035 	stwio	r3,0(r2)
    
    // wait start bits (zero)
    while(1){
      SD_CLK_LOW;
 2043250:	0007883a 	mov	r3,zero
 2043254:	00802004 	movi	r2,128
 2043258:	10c00035 	stwio	r3,0(r2)
      SD_CLK_HIGH;
 204325c:	00c00044 	movi	r3,1
 2043260:	00802004 	movi	r2,128
 2043264:	10c00035 	stwio	r3,0(r2)
#ifdef SD_4BIT_MODE
      if((SD_TEST_DAT & 0x0F) == 0x00) // check start bits (zero is expected)
 2043268:	00802804 	movi	r2,160
 204326c:	10800037 	ldwio	r2,0(r2)
 2043270:	108003cc 	andi	r2,r2,15
 2043274:	1000031e 	bne	r2,zero,2043284 <SDHAL_ReadData+0x70>
#else      
      if((SD_TEST_DAT & 0x01) == 0x00) // check start bits (zero is expected)
#endif      
        break;
 2043278:	0001883a 	nop
    }     
    
    // read data (512byte = 1 block)
    
#ifdef SD_4BIT_MODE
     for(i=0;i<nBufLen/4;i++)
 204327c:	e03f7215 	stw	zero,-568(fp)
 2043280:	00007606 	br	204345c <SDHAL_ReadData+0x248>
      if((SD_TEST_DAT & 0x0F) == 0x00) // check start bits (zero is expected)
#else      
      if((SD_TEST_DAT & 0x01) == 0x00) // check start bits (zero is expected)
#endif      
        break;
      if (nTry++ > nMaxTry)
 2043284:	e0bf7117 	ldw	r2,-572(fp)
 2043288:	10c00044 	addi	r3,r2,1
 204328c:	e0ff7115 	stw	r3,-572(fp)
 2043290:	e0ff7a17 	ldw	r3,-536(fp)
 2043294:	1880020e 	bge	r3,r2,20432a0 <SDHAL_ReadData+0x8c>
        return FALSE;        
 2043298:	0005883a 	mov	r2,zero
 204329c:	0000fe06 	br	2043698 <SDHAL_ReadData+0x484>
    }     
 20432a0:	003feb06 	br	2043250 <__alt_data_end+0xfffc3250>
    // read data (512byte = 1 block)
    
#ifdef SD_4BIT_MODE
     for(i=0;i<nBufLen/4;i++)
     {
        k = 0;
 20432a4:	e03f7415 	stw	zero,-560(fp)
        Data8   = 0;
 20432a8:	e03f7605 	stb	zero,-552(fp)
        Data8_0 = 0;
 20432ac:	e03f7885 	stb	zero,-542(fp)
        Data8_1 = 0;
 20432b0:	e03f78c5 	stb	zero,-541(fp)
        Data8_2 = 0;
 20432b4:	e03f7905 	stb	zero,-540(fp)
        Data8_3 = 0;
 20432b8:	e03f7945 	stb	zero,-539(fp)
        
        for(j=0;j<8;j++)
 20432bc:	e03f7315 	stw	zero,-564(fp)
 20432c0:	00004c06 	br	20433f4 <SDHAL_ReadData+0x1e0>
        {
          SD_CLK_LOW;
 20432c4:	0007883a 	mov	r3,zero
 20432c8:	00802004 	movi	r2,128
 20432cc:	10c00035 	stwio	r3,0(r2)
          SD_CLK_HIGH;
 20432d0:	00c00044 	movi	r3,1
 20432d4:	00802004 	movi	r2,128
 20432d8:	10c00035 	stwio	r3,0(r2)
          Data8   <<= 4;
 20432dc:	e0bf7603 	ldbu	r2,-552(fp)
 20432e0:	1004913a 	slli	r2,r2,4
 20432e4:	e0bf7605 	stb	r2,-552(fp)
          Data8_0 <<= 1;
 20432e8:	e0bf7883 	ldbu	r2,-542(fp)
 20432ec:	1085883a 	add	r2,r2,r2
 20432f0:	e0bf7885 	stb	r2,-542(fp)
          Data8_1 <<= 1;
 20432f4:	e0bf78c3 	ldbu	r2,-541(fp)
 20432f8:	1085883a 	add	r2,r2,r2
 20432fc:	e0bf78c5 	stb	r2,-541(fp)
          Data8_2 <<= 1;
 2043300:	e0bf7903 	ldbu	r2,-540(fp)
 2043304:	1085883a 	add	r2,r2,r2
 2043308:	e0bf7905 	stb	r2,-540(fp)
          Data8_3 <<= 1; 
 204330c:	e0bf7943 	ldbu	r2,-539(fp)
 2043310:	1085883a 	add	r2,r2,r2
 2043314:	e0bf7945 	stb	r2,-539(fp)
          
          DataTemp = SD_TEST_DAT;
 2043318:	00802804 	movi	r2,160
 204331c:	10800037 	ldwio	r2,0(r2)
 2043320:	e0bf7b05 	stb	r2,-532(fp)
          Data8   |= (DataTemp & 0x0F);
 2043324:	e0bf7b03 	ldbu	r2,-532(fp)
 2043328:	108003cc 	andi	r2,r2,15
 204332c:	1007883a 	mov	r3,r2
 2043330:	e0bf7603 	ldbu	r2,-552(fp)
 2043334:	1884b03a 	or	r2,r3,r2
 2043338:	e0bf7605 	stb	r2,-552(fp)
          Data8_0 |= (DataTemp & 0x01);
 204333c:	e0bf7b03 	ldbu	r2,-532(fp)
 2043340:	1080004c 	andi	r2,r2,1
 2043344:	1007883a 	mov	r3,r2
 2043348:	e0bf7883 	ldbu	r2,-542(fp)
 204334c:	1884b03a 	or	r2,r3,r2
 2043350:	e0bf7885 	stb	r2,-542(fp)
          Data8_1 |= ((DataTemp >> 1) & 0x01);
 2043354:	e0bf7b03 	ldbu	r2,-532(fp)
 2043358:	1004d07a 	srli	r2,r2,1
 204335c:	1080004c 	andi	r2,r2,1
 2043360:	1007883a 	mov	r3,r2
 2043364:	e0bf78c3 	ldbu	r2,-541(fp)
 2043368:	1884b03a 	or	r2,r3,r2
 204336c:	e0bf78c5 	stb	r2,-541(fp)
          Data8_2 |= ((DataTemp >> 2) & 0x01);
 2043370:	e0bf7b03 	ldbu	r2,-532(fp)
 2043374:	1004d0ba 	srli	r2,r2,2
 2043378:	1080004c 	andi	r2,r2,1
 204337c:	1007883a 	mov	r3,r2
 2043380:	e0bf7903 	ldbu	r2,-540(fp)
 2043384:	1884b03a 	or	r2,r3,r2
 2043388:	e0bf7905 	stb	r2,-540(fp)
          Data8_3 |= ((DataTemp >> 3) & 0x01);
 204338c:	e0bf7b03 	ldbu	r2,-532(fp)
 2043390:	1004d0fa 	srli	r2,r2,3
 2043394:	1080004c 	andi	r2,r2,1
 2043398:	1007883a 	mov	r3,r2
 204339c:	e0bf7943 	ldbu	r2,-539(fp)
 20433a0:	1884b03a 	or	r2,r3,r2
 20433a4:	e0bf7945 	stb	r2,-539(fp)
          
          k++;
 20433a8:	e0bf7417 	ldw	r2,-560(fp)
 20433ac:	10800044 	addi	r2,r2,1
 20433b0:	e0bf7415 	stw	r2,-560(fp)
          if(k == 2)
 20433b4:	e0bf7417 	ldw	r2,-560(fp)
 20433b8:	10800098 	cmpnei	r2,r2,2
 20433bc:	10000a1e 	bne	r2,zero,20433e8 <SDHAL_ReadData+0x1d4>
          {
            szBuf[n++] = Data8;
 20433c0:	e0bf7517 	ldw	r2,-556(fp)
 20433c4:	10c00044 	addi	r3,r2,1
 20433c8:	e0ff7515 	stw	r3,-556(fp)
 20433cc:	1007883a 	mov	r3,r2
 20433d0:	e0bffe17 	ldw	r2,-8(fp)
 20433d4:	10c5883a 	add	r2,r2,r3
 20433d8:	e0ff7603 	ldbu	r3,-552(fp)
 20433dc:	10c00005 	stb	r3,0(r2)
            Data8 = 0;
 20433e0:	e03f7605 	stb	zero,-552(fp)
            k = 0;
 20433e4:	e03f7415 	stw	zero,-560(fp)
        Data8_0 = 0;
        Data8_1 = 0;
        Data8_2 = 0;
        Data8_3 = 0;
        
        for(j=0;j<8;j++)
 20433e8:	e0bf7317 	ldw	r2,-564(fp)
 20433ec:	10800044 	addi	r2,r2,1
 20433f0:	e0bf7315 	stw	r2,-564(fp)
 20433f4:	e0bf7317 	ldw	r2,-564(fp)
 20433f8:	10800210 	cmplti	r2,r2,8
 20433fc:	103fb11e 	bne	r2,zero,20432c4 <__alt_data_end+0xfffc32c4>
            szBuf[n++] = Data8;
            Data8 = 0;
            k = 0;
          }
        } 
        szBuf_0[i] = Data8_0;
 2043400:	e0ff7d84 	addi	r3,fp,-522
 2043404:	e0bf7217 	ldw	r2,-568(fp)
 2043408:	1885883a 	add	r2,r3,r2
 204340c:	e0ff7883 	ldbu	r3,-542(fp)
 2043410:	10c00005 	stb	r3,0(r2)
        szBuf_1[i] = Data8_1;
 2043414:	e0ff9d84 	addi	r3,fp,-394
 2043418:	e0bf7217 	ldw	r2,-568(fp)
 204341c:	1885883a 	add	r2,r3,r2
 2043420:	e0ff78c3 	ldbu	r3,-541(fp)
 2043424:	10c00005 	stb	r3,0(r2)
        szBuf_2[i] = Data8_2;
 2043428:	e0ffbd84 	addi	r3,fp,-266
 204342c:	e0bf7217 	ldw	r2,-568(fp)
 2043430:	1885883a 	add	r2,r3,r2
 2043434:	e0ff7903 	ldbu	r3,-540(fp)
 2043438:	10c00005 	stb	r3,0(r2)
        szBuf_3[i] = Data8_3;
 204343c:	e0ffdd84 	addi	r3,fp,-138
 2043440:	e0bf7217 	ldw	r2,-568(fp)
 2043444:	1885883a 	add	r2,r3,r2
 2043448:	e0ff7943 	ldbu	r3,-539(fp)
 204344c:	10c00005 	stb	r3,0(r2)
    }     
    
    // read data (512byte = 1 block)
    
#ifdef SD_4BIT_MODE
     for(i=0;i<nBufLen/4;i++)
 2043450:	e0bf7217 	ldw	r2,-568(fp)
 2043454:	10800044 	addi	r2,r2,1
 2043458:	e0bf7215 	stw	r2,-568(fp)
 204345c:	e0bfff17 	ldw	r2,-4(fp)
 2043460:	1000010e 	bge	r2,zero,2043468 <SDHAL_ReadData+0x254>
 2043464:	108000c4 	addi	r2,r2,3
 2043468:	1005d0ba 	srai	r2,r2,2
 204346c:	1007883a 	mov	r3,r2
 2043470:	e0bf7217 	ldw	r2,-568(fp)
 2043474:	10ff8b16 	blt	r2,r3,20432a4 <__alt_data_end+0xfffc32a4>
#endif

    //===== CRC16 and end-bit check (each channel is seperated)
#ifdef SD_4BIT_MODE 
    // Not implement yet
    DataCrc16_0 = 0;
 2043478:	e03f768d 	sth	zero,-550(fp)
    DataCrc16_1 = 0;
 204347c:	e03f770d 	sth	zero,-548(fp)
    DataCrc16_2 = 0;
 2043480:	e03f778d 	sth	zero,-546(fp)
    DataCrc16_3 = 0;
 2043484:	e03f780d 	sth	zero,-544(fp)
    for(i=0;i<16;i++)
 2043488:	e03f7215 	stw	zero,-568(fp)
 204348c:	00003006 	br	2043550 <SDHAL_ReadData+0x33c>
    {
        SD_CLK_LOW;
 2043490:	0007883a 	mov	r3,zero
 2043494:	00802004 	movi	r2,128
 2043498:	10c00035 	stwio	r3,0(r2)
        SD_CLK_HIGH;
 204349c:	00c00044 	movi	r3,1
 20434a0:	00802004 	movi	r2,128
 20434a4:	10c00035 	stwio	r3,0(r2)
        
        DataCrc16_0 <<= 1;
 20434a8:	e0bf768b 	ldhu	r2,-550(fp)
 20434ac:	1085883a 	add	r2,r2,r2
 20434b0:	e0bf768d 	sth	r2,-550(fp)
        DataCrc16_1 <<= 1;
 20434b4:	e0bf770b 	ldhu	r2,-548(fp)
 20434b8:	1085883a 	add	r2,r2,r2
 20434bc:	e0bf770d 	sth	r2,-548(fp)
        DataCrc16_2 <<= 1;
 20434c0:	e0bf778b 	ldhu	r2,-546(fp)
 20434c4:	1085883a 	add	r2,r2,r2
 20434c8:	e0bf778d 	sth	r2,-546(fp)
        DataCrc16_3 <<= 1;
 20434cc:	e0bf780b 	ldhu	r2,-544(fp)
 20434d0:	1085883a 	add	r2,r2,r2
 20434d4:	e0bf780d 	sth	r2,-544(fp)
        
        DataTemp = SD_TEST_DAT;
 20434d8:	00802804 	movi	r2,160
 20434dc:	10800037 	ldwio	r2,0(r2)
 20434e0:	e0bf7b05 	stb	r2,-532(fp)
        
        if (DataTemp & 0x01)
 20434e4:	e0bf7b03 	ldbu	r2,-532(fp)
 20434e8:	1080004c 	andi	r2,r2,1
 20434ec:	10000326 	beq	r2,zero,20434fc <SDHAL_ReadData+0x2e8>
            DataCrc16_0 |= 0x01;
 20434f0:	e0bf768b 	ldhu	r2,-550(fp)
 20434f4:	10800054 	ori	r2,r2,1
 20434f8:	e0bf768d 	sth	r2,-550(fp)
         if(DataTemp & 0x02)
 20434fc:	e0bf7b03 	ldbu	r2,-532(fp)
 2043500:	1080008c 	andi	r2,r2,2
 2043504:	10000326 	beq	r2,zero,2043514 <SDHAL_ReadData+0x300>
            DataCrc16_1 |= 0x01;
 2043508:	e0bf770b 	ldhu	r2,-548(fp)
 204350c:	10800054 	ori	r2,r2,1
 2043510:	e0bf770d 	sth	r2,-548(fp)
         if(DataTemp & 0x04)
 2043514:	e0bf7b03 	ldbu	r2,-532(fp)
 2043518:	1080010c 	andi	r2,r2,4
 204351c:	10000326 	beq	r2,zero,204352c <SDHAL_ReadData+0x318>
            DataCrc16_2 |= 0x01;
 2043520:	e0bf778b 	ldhu	r2,-546(fp)
 2043524:	10800054 	ori	r2,r2,1
 2043528:	e0bf778d 	sth	r2,-546(fp)
         if(DataTemp & 0x08)
 204352c:	e0bf7b03 	ldbu	r2,-532(fp)
 2043530:	1080020c 	andi	r2,r2,8
 2043534:	10000326 	beq	r2,zero,2043544 <SDHAL_ReadData+0x330>
            DataCrc16_3 |= 0x01;
 2043538:	e0bf780b 	ldhu	r2,-544(fp)
 204353c:	10800054 	ori	r2,r2,1
 2043540:	e0bf780d 	sth	r2,-544(fp)
    // Not implement yet
    DataCrc16_0 = 0;
    DataCrc16_1 = 0;
    DataCrc16_2 = 0;
    DataCrc16_3 = 0;
    for(i=0;i<16;i++)
 2043544:	e0bf7217 	ldw	r2,-568(fp)
 2043548:	10800044 	addi	r2,r2,1
 204354c:	e0bf7215 	stw	r2,-568(fp)
 2043550:	e0bf7217 	ldw	r2,-568(fp)
 2043554:	10800410 	cmplti	r2,r2,16
 2043558:	103fcd1e 	bne	r2,zero,2043490 <__alt_data_end+0xfffc3490>
         if(DataTemp & 0x08)
            DataCrc16_3 |= 0x01;
    }
    
    // check end bit (value 'one' is expected
    SD_CLK_LOW;
 204355c:	0007883a 	mov	r3,zero
 2043560:	00802004 	movi	r2,128
 2043564:	10c00035 	stwio	r3,0(r2)
    SD_CLK_HIGH;
 2043568:	00c00044 	movi	r3,1
 204356c:	00802004 	movi	r2,128
 2043570:	10c00035 	stwio	r3,0(r2)
    if ((SD_TEST_DAT & 0x0F) != 0x0F)
 2043574:	00802804 	movi	r2,160
 2043578:	10800037 	ldwio	r2,0(r2)
 204357c:	108003cc 	andi	r2,r2,15
 2043580:	108003e0 	cmpeqi	r2,r2,15
 2043584:	1000011e 	bne	r2,zero,204358c <SDHAL_ReadData+0x378>
        bSuccess = FALSE;
 2043588:	e03f7015 	stw	zero,-576(fp)
     
    // to provide8 (eight) clock cycles for the card to complete the operation before shutting down the clock 
    SDHAL_DummyClock(8);     
 204358c:	01000204 	movi	r4,8
 2043590:	20438540 	call	2043854 <SDHAL_DummyClock>
     
    // check crc    
    if (bSuccess){
 2043594:	e0bf7017 	ldw	r2,-576(fp)
 2043598:	10000e26 	beq	r2,zero,20435d4 <SDHAL_ReadData+0x3c0>
        MyCrc16_0 = crc16(szBuf_0, nBufLen/4);
 204359c:	e0bfff17 	ldw	r2,-4(fp)
 20435a0:	1000010e 	bge	r2,zero,20435a8 <SDHAL_ReadData+0x394>
 20435a4:	108000c4 	addi	r2,r2,3
 20435a8:	1005d0ba 	srai	r2,r2,2
 20435ac:	1007883a 	mov	r3,r2
 20435b0:	e0bf7d84 	addi	r2,fp,-522
 20435b4:	1009883a 	mov	r4,r2
 20435b8:	180b883a 	mov	r5,r3
 20435bc:	2042d600 	call	2042d60 <crc16>
 20435c0:	e0bf7b8d 	sth	r2,-530(fp)
        if (MyCrc16_0 != DataCrc16_0)
 20435c4:	e0ff7b8b 	ldhu	r3,-530(fp)
 20435c8:	e0bf768b 	ldhu	r2,-550(fp)
 20435cc:	18800126 	beq	r3,r2,20435d4 <SDHAL_ReadData+0x3c0>
            bSuccess = FALSE;
 20435d0:	e03f7015 	stw	zero,-576(fp)
    }    
    if (bSuccess){
 20435d4:	e0bf7017 	ldw	r2,-576(fp)
 20435d8:	10000e26 	beq	r2,zero,2043614 <SDHAL_ReadData+0x400>
        MyCrc16_1 = crc16(szBuf_1, nBufLen/4);
 20435dc:	e0bfff17 	ldw	r2,-4(fp)
 20435e0:	1000010e 	bge	r2,zero,20435e8 <SDHAL_ReadData+0x3d4>
 20435e4:	108000c4 	addi	r2,r2,3
 20435e8:	1005d0ba 	srai	r2,r2,2
 20435ec:	1007883a 	mov	r3,r2
 20435f0:	e0bf9d84 	addi	r2,fp,-394
 20435f4:	1009883a 	mov	r4,r2
 20435f8:	180b883a 	mov	r5,r3
 20435fc:	2042d600 	call	2042d60 <crc16>
 2043600:	e0bf7c0d 	sth	r2,-528(fp)
        if (MyCrc16_1 != DataCrc16_1)
 2043604:	e0ff7c0b 	ldhu	r3,-528(fp)
 2043608:	e0bf770b 	ldhu	r2,-548(fp)
 204360c:	18800126 	beq	r3,r2,2043614 <SDHAL_ReadData+0x400>
            bSuccess = FALSE;
 2043610:	e03f7015 	stw	zero,-576(fp)
    }   
    if (bSuccess){
 2043614:	e0bf7017 	ldw	r2,-576(fp)
 2043618:	10000e26 	beq	r2,zero,2043654 <SDHAL_ReadData+0x440>
        MyCrc16_2 = crc16(szBuf_2, nBufLen/4);
 204361c:	e0bfff17 	ldw	r2,-4(fp)
 2043620:	1000010e 	bge	r2,zero,2043628 <SDHAL_ReadData+0x414>
 2043624:	108000c4 	addi	r2,r2,3
 2043628:	1005d0ba 	srai	r2,r2,2
 204362c:	1007883a 	mov	r3,r2
 2043630:	e0bfbd84 	addi	r2,fp,-266
 2043634:	1009883a 	mov	r4,r2
 2043638:	180b883a 	mov	r5,r3
 204363c:	2042d600 	call	2042d60 <crc16>
 2043640:	e0bf7c8d 	sth	r2,-526(fp)
        if (MyCrc16_2 != DataCrc16_2)
 2043644:	e0ff7c8b 	ldhu	r3,-526(fp)
 2043648:	e0bf778b 	ldhu	r2,-546(fp)
 204364c:	18800126 	beq	r3,r2,2043654 <SDHAL_ReadData+0x440>
            bSuccess = FALSE;
 2043650:	e03f7015 	stw	zero,-576(fp)
    } 
    if (bSuccess){
 2043654:	e0bf7017 	ldw	r2,-576(fp)
 2043658:	10000e26 	beq	r2,zero,2043694 <SDHAL_ReadData+0x480>
        MyCrc16_3 = crc16(szBuf_3, nBufLen/4);
 204365c:	e0bfff17 	ldw	r2,-4(fp)
 2043660:	1000010e 	bge	r2,zero,2043668 <SDHAL_ReadData+0x454>
 2043664:	108000c4 	addi	r2,r2,3
 2043668:	1005d0ba 	srai	r2,r2,2
 204366c:	1007883a 	mov	r3,r2
 2043670:	e0bfdd84 	addi	r2,fp,-138
 2043674:	1009883a 	mov	r4,r2
 2043678:	180b883a 	mov	r5,r3
 204367c:	2042d600 	call	2042d60 <crc16>
 2043680:	e0bf7d0d 	sth	r2,-524(fp)
        if (MyCrc16_3 != DataCrc16_3)
 2043684:	e0ff7d0b 	ldhu	r3,-524(fp)
 2043688:	e0bf780b 	ldhu	r2,-544(fp)
 204368c:	18800126 	beq	r3,r2,2043694 <SDHAL_ReadData+0x480>
            bSuccess = FALSE;
 2043690:	e03f7015 	stw	zero,-576(fp)
            bSuccess = FALSE;
    }            
    
#endif

    return bSuccess;
 2043694:	e0bf7017 	ldw	r2,-576(fp)
}
 2043698:	e037883a 	mov	sp,fp
 204369c:	dfc00117 	ldw	ra,4(sp)
 20436a0:	df000017 	ldw	fp,0(sp)
 20436a4:	dec00204 	addi	sp,sp,8
 20436a8:	f800283a 	ret

020436ac <SDHAL_WriteData>:

bool SDHAL_WriteData(alt_u8 szDataWrite[], int nDataLen){
 20436ac:	defff604 	addi	sp,sp,-40
 20436b0:	dfc00915 	stw	ra,36(sp)
 20436b4:	df000815 	stw	fp,32(sp)
 20436b8:	df000804 	addi	fp,sp,32
 20436bc:	e13ffe15 	stw	r4,-8(fp)
 20436c0:	e17fff15 	stw	r5,-4(fp)
    bool bSuccess = TRUE;
 20436c4:	00800044 	movi	r2,1
 20436c8:	e0bff815 	stw	r2,-32(fp)
  //  const int nMaxTry = 5000; 
    int i, j;   
    alt_u8 Data8;
    alt_u16 DataCrc16;
    
    DataCrc16 = crc16(szDataWrite, nDataLen);
 20436cc:	e13ffe17 	ldw	r4,-8(fp)
 20436d0:	e17fff17 	ldw	r5,-4(fp)
 20436d4:	2042d600 	call	2042d60 <crc16>
 20436d8:	e0bffd0d 	sth	r2,-12(fp)
        break;
      if (nTry++ > nMaxTry)
        return FALSE;        
    } */    
    
    SD_DAT_OUT;
 20436dc:	00c00044 	movi	r3,1
 20436e0:	00802904 	movi	r2,164
 20436e4:	10c00035 	stwio	r3,0(r2)
    // start bits (zero value)
    SD_CLK_LOW;
 20436e8:	0007883a 	mov	r3,zero
 20436ec:	00802004 	movi	r2,128
 20436f0:	10c00035 	stwio	r3,0(r2)
    SD_DAT_WRITE(0x00);  
 20436f4:	0007883a 	mov	r3,zero
 20436f8:	00802804 	movi	r2,160
 20436fc:	10c00035 	stwio	r3,0(r2)
    SD_CLK_HIGH;
 2043700:	00c00044 	movi	r3,1
 2043704:	00802004 	movi	r2,128
 2043708:	10c00035 	stwio	r3,0(r2)
    
    // write data (512byte = 1 block)
    for(i=0;i<nDataLen;i++)
 204370c:	e03ff915 	stw	zero,-28(fp)
 2043710:	00001f06 	br	2043790 <SDHAL_WriteData+0xe4>
    {
      Data8 = szDataWrite[i];
 2043714:	e0bff917 	ldw	r2,-28(fp)
 2043718:	e0fffe17 	ldw	r3,-8(fp)
 204371c:	1885883a 	add	r2,r3,r2
 2043720:	10800003 	ldbu	r2,0(r2)
 2043724:	e0bffb05 	stb	r2,-20(fp)
#ifdef SD_4BIT_MODE
      for(j=0;j<2;j++)
 2043728:	e03ffa15 	stw	zero,-24(fp)
 204372c:	00001206 	br	2043778 <SDHAL_WriteData+0xcc>
      {
        SD_CLK_LOW;
 2043730:	0007883a 	mov	r3,zero
 2043734:	00802004 	movi	r2,128
 2043738:	10c00035 	stwio	r3,0(r2)
        //
        SD_DAT_WRITE((Data8 >> 4) & 0x0F);
 204373c:	e0bffb03 	ldbu	r2,-20(fp)
 2043740:	1004d13a 	srli	r2,r2,4
 2043744:	10803fcc 	andi	r2,r2,255
 2043748:	10c003cc 	andi	r3,r2,15
 204374c:	00802804 	movi	r2,160
 2043750:	10c00035 	stwio	r3,0(r2)
        //            
        SD_CLK_HIGH;
 2043754:	00c00044 	movi	r3,1
 2043758:	00802004 	movi	r2,128
 204375c:	10c00035 	stwio	r3,0(r2)
        Data8 <<= 4; 
 2043760:	e0bffb03 	ldbu	r2,-20(fp)
 2043764:	1004913a 	slli	r2,r2,4
 2043768:	e0bffb05 	stb	r2,-20(fp)
    // write data (512byte = 1 block)
    for(i=0;i<nDataLen;i++)
    {
      Data8 = szDataWrite[i];
#ifdef SD_4BIT_MODE
      for(j=0;j<2;j++)
 204376c:	e0bffa17 	ldw	r2,-24(fp)
 2043770:	10800044 	addi	r2,r2,1
 2043774:	e0bffa15 	stw	r2,-24(fp)
 2043778:	e0bffa17 	ldw	r2,-24(fp)
 204377c:	10800090 	cmplti	r2,r2,2
 2043780:	103feb1e 	bne	r2,zero,2043730 <__alt_data_end+0xfffc3730>
    SD_CLK_LOW;
    SD_DAT_WRITE(0x00);  
    SD_CLK_HIGH;
    
    // write data (512byte = 1 block)
    for(i=0;i<nDataLen;i++)
 2043784:	e0bff917 	ldw	r2,-28(fp)
 2043788:	10800044 	addi	r2,r2,1
 204378c:	e0bff915 	stw	r2,-28(fp)
 2043790:	e0fff917 	ldw	r3,-28(fp)
 2043794:	e0bfff17 	ldw	r2,-4(fp)
 2043798:	18bfde16 	blt	r3,r2,2043714 <__alt_data_end+0xfffc3714>

    
#endif    

    // stop bits (value 'one')
    SD_CLK_LOW;
 204379c:	0007883a 	mov	r3,zero
 20437a0:	00802004 	movi	r2,128
 20437a4:	10c00035 	stwio	r3,0(r2)
#ifdef SD_4BIT_MODE
    SD_DAT_WRITE(0x0F);
 20437a8:	00c003c4 	movi	r3,15
 20437ac:	00802804 	movi	r2,160
 20437b0:	10c00035 	stwio	r3,0(r2)
#else    
    SD_DAT_HIGH;
#endif     
    SD_CLK_HIGH;
 20437b4:	00c00044 	movi	r3,1
 20437b8:	00802004 	movi	r2,128
 20437bc:	10c00035 	stwio	r3,0(r2)
    
    //===== check busy bits (data0 only)
    SD_DAT_IN;
 20437c0:	0007883a 	mov	r3,zero
 20437c4:	00802904 	movi	r2,164
 20437c8:	10c00035 	stwio	r3,0(r2)
bool bWriteSuccess = FALSE;    
 20437cc:	e03ffc15 	stw	zero,-16(fp)
for(i=0;i<32 && !bWriteSuccess;i++){        
 20437d0:	e03ff915 	stw	zero,-28(fp)
 20437d4:	00000f06 	br	2043814 <SDHAL_WriteData+0x168>
    SD_CLK_LOW;
 20437d8:	0007883a 	mov	r3,zero
 20437dc:	00802004 	movi	r2,128
 20437e0:	10c00035 	stwio	r3,0(r2)
    SD_CLK_HIGH;
 20437e4:	00c00044 	movi	r3,1
 20437e8:	00802004 	movi	r2,128
 20437ec:	10c00035 	stwio	r3,0(r2)
    if ((SD_TEST_DAT & 0x01) == 0x01) // (DAT0==LOW: busy indicate
 20437f0:	00802804 	movi	r2,160
 20437f4:	10800037 	ldwio	r2,0(r2)
 20437f8:	1080004c 	andi	r2,r2,1
 20437fc:	10000226 	beq	r2,zero,2043808 <SDHAL_WriteData+0x15c>
        bWriteSuccess = TRUE;
 2043800:	00800044 	movi	r2,1
 2043804:	e0bffc15 	stw	r2,-16(fp)
    SD_CLK_HIGH;
    
    //===== check busy bits (data0 only)
    SD_DAT_IN;
bool bWriteSuccess = FALSE;    
for(i=0;i<32 && !bWriteSuccess;i++){        
 2043808:	e0bff917 	ldw	r2,-28(fp)
 204380c:	10800044 	addi	r2,r2,1
 2043810:	e0bff915 	stw	r2,-28(fp)
 2043814:	e0bff917 	ldw	r2,-28(fp)
 2043818:	10800808 	cmpgei	r2,r2,32
 204381c:	1000021e 	bne	r2,zero,2043828 <SDHAL_WriteData+0x17c>
 2043820:	e0bffc17 	ldw	r2,-16(fp)
 2043824:	103fec26 	beq	r2,zero,20437d8 <__alt_data_end+0xfffc37d8>
    SD_CLK_LOW;
    SD_CLK_HIGH;
    if ((SD_TEST_DAT & 0x01) == 0x01) // (DAT0==LOW: busy indicate
        bWriteSuccess = TRUE;
}
    if (!bWriteSuccess)
 2043828:	e0bffc17 	ldw	r2,-16(fp)
 204382c:	1000011e 	bne	r2,zero,2043834 <SDHAL_WriteData+0x188>
        bSuccess = FALSE;
 2043830:	e03ff815 	stw	zero,-32(fp)
                
    // to provide8 (eight) clock cycles for the card to complete the operation before shutting down the clock 
    SDHAL_DummyClock(8);     
 2043834:	01000204 	movi	r4,8
 2043838:	20438540 	call	2043854 <SDHAL_DummyClock>
    for(i=0; i<16; i++){
        SD_CLK_LOW;
        SD_CLK_HIGH;
    }*/
    
    return bSuccess;
 204383c:	e0bff817 	ldw	r2,-32(fp)
    
}
 2043840:	e037883a 	mov	sp,fp
 2043844:	dfc00117 	ldw	ra,4(sp)
 2043848:	df000017 	ldw	fp,0(sp)
 204384c:	dec00204 	addi	sp,sp,8
 2043850:	f800283a 	ret

02043854 <SDHAL_DummyClock>:


void SDHAL_DummyClock(int nClockCnt){
 2043854:	defffd04 	addi	sp,sp,-12
 2043858:	df000215 	stw	fp,8(sp)
 204385c:	df000204 	addi	fp,sp,8
 2043860:	e13fff15 	stw	r4,-4(fp)
    int i;
    for(i=0;i<nClockCnt;i++){
 2043864:	e03ffe15 	stw	zero,-8(fp)
 2043868:	00000906 	br	2043890 <SDHAL_DummyClock+0x3c>
        SD_CLK_LOW;
 204386c:	0007883a 	mov	r3,zero
 2043870:	00802004 	movi	r2,128
 2043874:	10c00035 	stwio	r3,0(r2)
        SD_CLK_HIGH;
 2043878:	00c00044 	movi	r3,1
 204387c:	00802004 	movi	r2,128
 2043880:	10c00035 	stwio	r3,0(r2)
}


void SDHAL_DummyClock(int nClockCnt){
    int i;
    for(i=0;i<nClockCnt;i++){
 2043884:	e0bffe17 	ldw	r2,-8(fp)
 2043888:	10800044 	addi	r2,r2,1
 204388c:	e0bffe15 	stw	r2,-8(fp)
 2043890:	e0fffe17 	ldw	r3,-8(fp)
 2043894:	e0bfff17 	ldw	r2,-4(fp)
 2043898:	18bff416 	blt	r3,r2,204386c <__alt_data_end+0xfffc386c>
        SD_CLK_LOW;
        SD_CLK_HIGH;
    }
}
 204389c:	e037883a 	mov	sp,fp
 20438a0:	df000017 	ldw	fp,0(sp)
 20438a4:	dec00104 	addi	sp,sp,4
 20438a8:	f800283a 	ret

020438ac <SDLIB_Init>:
static SD_INFO gSdInfo;


//-------------------------------------------------------------------------
bool SDLIB_Init(void)
{
 20438ac:	defff604 	addi	sp,sp,-40
 20438b0:	dfc00915 	stw	ra,36(sp)
 20438b4:	df000815 	stw	fp,32(sp)
 20438b8:	df000804 	addi	fp,sp,32
    bool bSuccess = FALSE, bTimeout = FALSE;
 20438bc:	e03ff815 	stw	zero,-32(fp)
 20438c0:	e03ff915 	stw	zero,-28(fp)
 20438c4:	008081b4 	movhi	r2,518
 20438c8:	10991704 	addi	r2,r2,25692
 20438cc:	10800017 	ldw	r2,0(r2)
    alt_u8  szThisCID[16];
    const int nTimeout = alt_ticks_per_second();
 20438d0:	e0bffa15 	stw	r2,-24(fp)
    alt_u32 TimeStart;

    
   // alt_u8 x,y;
    memset(&gSdInfo, 0, sizeof(gSdInfo));
 20438d4:	010081b4 	movhi	r4,518
 20438d8:	21191a04 	addi	r4,r4,25704
 20438dc:	000b883a 	mov	r5,zero
 20438e0:	01800e04 	movi	r6,56
 20438e4:	20488440 	call	2048844 <memset>
    gSdInfo.bSupport4Bits = SD_IsSupport4Bits();
 20438e8:	2043d080 	call	2043d08 <SD_IsSupport4Bits>
 20438ec:	1007883a 	mov	r3,r2
 20438f0:	008081b4 	movhi	r2,518
 20438f4:	10991a04 	addi	r2,r2,25704
 20438f8:	10c00015 	stw	r3,0(r2)

    SDCARD_DEBUG(("--- Power On, Card Identification Mode, Idle State\r\n"));
    SDCARD_DEBUG(("sd %d-bit mode\r\n", gSdInfo.bSupport4Bits?4:1));
  
    usleep(74*10);
 20438fc:	0100b904 	movi	r4,740
 2043900:	205c1100 	call	205c110 <usleep>
    
    SD_Init();
 2043904:	2043ce00 	call	2043ce0 <SD_Init>

    
    //========================== CMD0 (None Response) ========
    // Reset all cards to idle state
    SD_CMD0();
 2043908:	2043d300 	call	2043d30 <SD_CMD0>
    usleep(100*1000);
 204390c:	010000b4 	movhi	r4,2
 2043910:	2121a804 	addi	r4,r4,-31072
 2043914:	205c1100 	call	205c110 <usleep>
    
    //========================== CMD8 (Response R7) ==========
    //Sends SD Memory Card interface condition (Added in SDHC 2.0)
    if (SD_CMD8(SD_VHS_2V7_3V6, CMD8_DEFAULT_TEST_PATTERN)){
 2043918:	01000044 	movi	r4,1
 204391c:	01402a84 	movi	r5,170
 2043920:	2043db80 	call	2043db8 <SD_CMD8>
 2043924:	10000e26 	beq	r2,zero,2043960 <SDLIB_Init+0xb4>
        // OCR: Operation Condistions Register
        //gSdInfo.HostOCR32 = 0x01 << 30; //argument=0x40FF8000; // support HC
        gSdInfo.HostOCR32 = 0x40FF8000;
 2043928:	008081b4 	movhi	r2,518
 204392c:	10991a04 	addi	r2,r2,25704
 2043930:	00d04034 	movhi	r3,16640
 2043934:	18e00004 	addi	r3,r3,-32768
 2043938:	10c00315 	stw	r3,12(r2)
        gSdInfo.bVer2 = TRUE;
 204393c:	008081b4 	movhi	r2,518
 2043940:	10991a04 	addi	r2,r2,25704
 2043944:	00c00044 	movi	r3,1
 2043948:	10c00115 	stw	r3,4(r2)
        gSdInfo.bSDHC = TRUE;
 204394c:	008081b4 	movhi	r2,518
 2043950:	10991a04 	addi	r2,r2,25704
 2043954:	00c00044 	movi	r3,1
 2043958:	10c00215 	stw	r3,8(r2)
 204395c:	00000806 	br	2043980 <SDLIB_Init+0xd4>
        SDCARD_DEBUG((" 2.0 \r\n"));
    }else{
        gSdInfo.HostOCR32 = 0x00040000;   
 2043960:	008081b4 	movhi	r2,518
 2043964:	10991a04 	addi	r2,r2,25704
 2043968:	00c00134 	movhi	r3,4
 204396c:	10c00315 	stw	r3,12(r2)
        SDCARD_TRACE(("CMD8 not supported\r\n"));
        
        // Reset cards to idle state
        SD_CMD0();
 2043970:	2043d300 	call	2043d30 <SD_CMD0>
        usleep(100*1000);        
 2043974:	010000b4 	movhi	r4,2
 2043978:	2121a804 	addi	r4,r4,-31072
 204397c:	205c1100 	call	205c110 <usleep>
 * alt_nticks() returns the elapsed number of system clock ticks since reset.
 */

static ALT_INLINE alt_u32 ALT_ALWAYS_INLINE alt_nticks (void)
{
  return _alt_nticks;
 2043980:	008081b4 	movhi	r2,518
 2043984:	10991804 	addi	r2,r2,25696
 2043988:	10800017 	ldw	r2,0(r2)
    }
    //========================== ACMD41 (CMD55) ==============
    TimeStart = alt_nticks();
 204398c:	e0bffb15 	stw	r2,-20(fp)
    while(!bSuccess && !bTimeout){
 2043990:	00002e06 	br	2043a4c <SDLIB_Init+0x1a0>
        if (!SD_CMD55(gSdInfo.RCA16, SD_STATE_IDLE)){  // execute cmd55 before execute and ACMD
 2043994:	008081b4 	movhi	r2,518
 2043998:	10991a04 	addi	r2,r2,25704
 204399c:	1080050b 	ldhu	r2,20(r2)
 20439a0:	10bfffcc 	andi	r2,r2,65535
 20439a4:	1009883a 	mov	r4,r2
 20439a8:	000b883a 	mov	r5,zero
 20439ac:	2043f440 	call	2043f44 <SD_CMD55>
 20439b0:	1000021e 	bne	r2,zero,20439bc <SDLIB_Init+0x110>
            SDCARD_ERROR(("CMD55 NG\r\n"));
            return FALSE;
 20439b4:	0005883a 	mov	r2,zero
 20439b8:	00008406 	br	2043bcc <SDLIB_Init+0x320>
        }else{    
            bSuccess = SD_ACMD41(gSdInfo.HostOCR32, &gSdInfo.OCR32);
 20439bc:	008081b4 	movhi	r2,518
 20439c0:	10991a04 	addi	r2,r2,25704
 20439c4:	10800317 	ldw	r2,12(r2)
 20439c8:	1009883a 	mov	r4,r2
 20439cc:	014081b4 	movhi	r5,518
 20439d0:	29591e04 	addi	r5,r5,25720
 20439d4:	20440c40 	call	20440c4 <SD_ACMD41>
 20439d8:	e0bff815 	stw	r2,-32(fp)
            if (bSuccess && gSdInfo.bSDHC && ((gSdInfo.OCR32 & 0x40000000) == 0x00)){
 20439dc:	e0bff817 	ldw	r2,-32(fp)
 20439e0:	10000c26 	beq	r2,zero,2043a14 <SDLIB_Init+0x168>
 20439e4:	008081b4 	movhi	r2,518
 20439e8:	10991a04 	addi	r2,r2,25704
 20439ec:	10800217 	ldw	r2,8(r2)
 20439f0:	10000826 	beq	r2,zero,2043a14 <SDLIB_Init+0x168>
 20439f4:	008081b4 	movhi	r2,518
 20439f8:	10991a04 	addi	r2,r2,25704
 20439fc:	10800417 	ldw	r2,16(r2)
 2043a00:	1090002c 	andhi	r2,r2,16384
 2043a04:	1000031e 	bne	r2,zero,2043a14 <SDLIB_Init+0x168>
                gSdInfo.bSDHC = FALSE;
 2043a08:	008081b4 	movhi	r2,518
 2043a0c:	10991a04 	addi	r2,r2,25704
 2043a10:	10000215 	stw	zero,8(r2)
            }    
            // check timeout
            if (!bSuccess){
 2043a14:	e0bff817 	ldw	r2,-32(fp)
 2043a18:	10000c1e 	bne	r2,zero,2043a4c <SDLIB_Init+0x1a0>
 2043a1c:	008081b4 	movhi	r2,518
 2043a20:	10991804 	addi	r2,r2,25696
 2043a24:	10c00017 	ldw	r3,0(r2)
                if ((alt_nticks() - TimeStart) > nTimeout){
 2043a28:	e0bffb17 	ldw	r2,-20(fp)
 2043a2c:	1885c83a 	sub	r2,r3,r2
 2043a30:	e0fffa17 	ldw	r3,-24(fp)
 2043a34:	1880032e 	bgeu	r3,r2,2043a44 <SDLIB_Init+0x198>
                    SDCARD_ERROR(("ACMD41[SD_APP_OP_COND] fail\r\n"));
                    bTimeout = TRUE;
 2043a38:	00800044 	movi	r2,1
 2043a3c:	e0bff915 	stw	r2,-28(fp)
 2043a40:	00000206 	br	2043a4c <SDLIB_Init+0x1a0>
                }else{
                    usleep(10*1000);
 2043a44:	0109c404 	movi	r4,10000
 2043a48:	205c1100 	call	205c110 <usleep>
        SD_CMD0();
        usleep(100*1000);        
    }
    //========================== ACMD41 (CMD55) ==============
    TimeStart = alt_nticks();
    while(!bSuccess && !bTimeout){
 2043a4c:	e0bff817 	ldw	r2,-32(fp)
 2043a50:	1000021e 	bne	r2,zero,2043a5c <SDLIB_Init+0x1b0>
 2043a54:	e0bff917 	ldw	r2,-28(fp)
 2043a58:	103fce26 	beq	r2,zero,2043994 <__alt_data_end+0xfffc3994>
                    usleep(10*1000);
                }    
            }
        }
    }
    if (!bSuccess){
 2043a5c:	e0bff817 	ldw	r2,-32(fp)
 2043a60:	1000021e 	bne	r2,zero,2043a6c <SDLIB_Init+0x1c0>
        return FALSE;
 2043a64:	0005883a 	mov	r2,zero
 2043a68:	00005806 	br	2043bcc <SDLIB_Init+0x320>
    }
   
    //========================== CMD2 ========================    
    // issue cmd2 & wait response 
    // ALL_SEND_CID (CMD2): Asks any card to send the CID numbers on the CMD line
    if (!SD_CMD2(gSdInfo.szCID, sizeof(gSdInfo.szCID))){
 2043a6c:	010081b4 	movhi	r4,518
 2043a70:	21191f84 	addi	r4,r4,25726
 2043a74:	01400444 	movi	r5,17
 2043a78:	20442600 	call	2044260 <SD_CMD2>
 2043a7c:	1000021e 	bne	r2,zero,2043a88 <SDLIB_Init+0x1dc>
        SDCARD_ERROR(("CMD2 fail\r\n"));
        return FALSE;
 2043a80:	0005883a 	mov	r2,zero
 2043a84:	00005106 	br	2043bcc <SDLIB_Init+0x320>
    SDCARD_TRACE(("--- Power On, Card Identification Mode, Identification State\r\n"));

    //========================== CMD3 ========================        
    // issue cmd3 & wait response, finally get RCA
    // CMD3 (SEND_RELATIVE_ADDR): Ask the card to publish a new relative address (RCA)
    if (!SD_CMD3(&gSdInfo.RCA16)){
 2043a88:	010081b4 	movhi	r4,518
 2043a8c:	21191f04 	addi	r4,r4,25724
 2043a90:	20443f80 	call	20443f8 <SD_CMD3>
 2043a94:	1000021e 	bne	r2,zero,2043aa0 <SDLIB_Init+0x1f4>
        SDCARD_ERROR(("CMD3 fail\r\n"));
        return FALSE;
 2043a98:	0005883a 	mov	r2,zero
 2043a9c:	00004b06 	br	2043bcc <SDLIB_Init+0x320>
    //### Standby-by state in Data-transfer mode
    
    //========================== CMD9 ========================
    SDCARD_DEBUG(("--- enter data-transfer mode, Standby state\r\n"));
    // issue cmd9 with given RCA & wait response 
    if (!SD_CMD9(gSdInfo.RCA16, gSdInfo.szCSD, sizeof(gSdInfo.szCSD))){
 2043aa0:	008081b4 	movhi	r2,518
 2043aa4:	10991a04 	addi	r2,r2,25704
 2043aa8:	1080050b 	ldhu	r2,20(r2)
 2043aac:	10bfffcc 	andi	r2,r2,65535
 2043ab0:	1009883a 	mov	r4,r2
 2043ab4:	014081b4 	movhi	r5,518
 2043ab8:	295923c4 	addi	r5,r5,25743
 2043abc:	01800444 	movi	r6,17
 2043ac0:	20445940 	call	2044594 <SD_CMD9>
 2043ac4:	1000021e 	bne	r2,zero,2043ad0 <SDLIB_Init+0x224>
        SDCARD_DEBUG(("CMD9 fail\r\n"));
        return FALSE;
 2043ac8:	0005883a 	mov	r2,zero
 2043acc:	00003f06 	br	2043bcc <SDLIB_Init+0x320>
    }
    
    //========================== CMD10 ========================
    // richard add  (query card identification)  
    if (!SD_CMD10(gSdInfo.RCA16, szThisCID, sizeof(szThisCID))){
 2043ad0:	008081b4 	movhi	r2,518
 2043ad4:	10991a04 	addi	r2,r2,25704
 2043ad8:	1080050b 	ldhu	r2,20(r2)
 2043adc:	10ffffcc 	andi	r3,r2,65535
 2043ae0:	e0bffc04 	addi	r2,fp,-16
 2043ae4:	1809883a 	mov	r4,r3
 2043ae8:	100b883a 	mov	r5,r2
 2043aec:	01800404 	movi	r6,16
 2043af0:	20447540 	call	2044754 <SD_CMD10>
 2043af4:	1000021e 	bne	r2,zero,2043b00 <SDLIB_Init+0x254>
        SDCARD_DEBUG(("CMD10 fail\r\n"));
        return FALSE;
 2043af8:	0005883a 	mov	r2,zero
 2043afc:	00003306 	br	2043bcc <SDLIB_Init+0x320>
    // issue cmd9 with given RCA & wait response
    
    //========================== CMD7 ========================
    // richard: issue cmd7 to enter transfer state
    // cmd7: toggle between Standy-by and Trasfer State
    if (!SD_CMD7(gSdInfo.RCA16)){
 2043b00:	008081b4 	movhi	r2,518
 2043b04:	10991a04 	addi	r2,r2,25704
 2043b08:	1080050b 	ldhu	r2,20(r2)
 2043b0c:	10bfffcc 	andi	r2,r2,65535
 2043b10:	1009883a 	mov	r4,r2
 2043b14:	20449140 	call	2044914 <SD_CMD7>
 2043b18:	1000021e 	bne	r2,zero,2043b24 <SDLIB_Init+0x278>
        SDCARD_DEBUG(("CMD7 fail\r\n"));
        return FALSE;
 2043b1c:	0005883a 	mov	r2,zero
 2043b20:	00002a06 	br	2043bcc <SDLIB_Init+0x320>
    //### Transfer state in Data-transfer mode     
    SDCARD_DEBUG(("--- enter data-transfer mode, Transfer state\r\n"));
       
    //========================== CMD16 ========================   
    // issue cmd16 (select a block length) & wait response
    if (!SD_CMD16(512)){  // 512 bytes
 2043b24:	01008004 	movi	r4,512
 2043b28:	2044a940 	call	2044a94 <SD_CMD16>
 2043b2c:	1000021e 	bne	r2,zero,2043b38 <SDLIB_Init+0x28c>
        SDCARD_DEBUG(("CMD16 fail\r\n"));
        return FALSE;
 2043b30:	0005883a 	mov	r2,zero
 2043b34:	00002506 	br	2043bcc <SDLIB_Init+0x320>
    }       
    
    if (gSdInfo.bSupport4Bits){ 
 2043b38:	008081b4 	movhi	r2,518
 2043b3c:	10991a04 	addi	r2,r2,25704
 2043b40:	10800017 	ldw	r2,0(r2)
 2043b44:	10002026 	beq	r2,zero,2043bc8 <SDLIB_Init+0x31c>
        // richard add: set bus width
        // Note. This command is valid only in "transfer state", i.e. after CMD7 is issued

        if (!SD_CMD55(gSdInfo.RCA16, SD_STATE_TRAN)){  // execute cmd55 before execute and ACMD, RCA = 0
 2043b48:	008081b4 	movhi	r2,518
 2043b4c:	10991a04 	addi	r2,r2,25704
 2043b50:	1080050b 	ldhu	r2,20(r2)
 2043b54:	10bfffcc 	andi	r2,r2,65535
 2043b58:	1009883a 	mov	r4,r2
 2043b5c:	01400104 	movi	r5,4
 2043b60:	2043f440 	call	2043f44 <SD_CMD55>
 2043b64:	1000021e 	bne	r2,zero,2043b70 <SDLIB_Init+0x2c4>
            SDCARD_DEBUG(("CMD55 NG\r\n"));
            return FALSE;
 2043b68:	0005883a 	mov	r2,zero
 2043b6c:	00001706 	br	2043bcc <SDLIB_Init+0x320>
        }       
    
        SDCARD_DEBUG(("ACMD6[SET_BUS_WIDTH], 4-bit\r\n"));
        if (!SD_ACMD6(TRUE, SD_STATE_TRAN)){  // 4-bit mode
 2043b70:	01000044 	movi	r4,1
 2043b74:	01400104 	movi	r5,4
 2043b78:	2044c340 	call	2044c34 <SD_ACMD6>
 2043b7c:	1000021e 	bne	r2,zero,2043b88 <SDLIB_Init+0x2dc>
            SDCARD_DEBUG(("ACMD6 NG\r\n"));
            return FALSE;
 2043b80:	0005883a 	mov	r2,zero
 2043b84:	00001106 	br	2043bcc <SDLIB_Init+0x320>
        }         
    
    
        //
        if (!SD_CMD55(gSdInfo.RCA16, SD_STATE_TRAN)){  // execute cmd55 before execute and ACMD, RCA = 0
 2043b88:	008081b4 	movhi	r2,518
 2043b8c:	10991a04 	addi	r2,r2,25704
 2043b90:	1080050b 	ldhu	r2,20(r2)
 2043b94:	10bfffcc 	andi	r2,r2,65535
 2043b98:	1009883a 	mov	r4,r2
 2043b9c:	01400104 	movi	r5,4
 2043ba0:	2043f440 	call	2043f44 <SD_CMD55>
 2043ba4:	1000021e 	bne	r2,zero,2043bb0 <SDLIB_Init+0x304>
            SDCARD_DEBUG(("CMD55 NG\r\n"));
            return FALSE;
 2043ba8:	0005883a 	mov	r2,zero
 2043bac:	00000706 	br	2043bcc <SDLIB_Init+0x320>
        }    
    
       
        SDCARD_DEBUG(("ACMD42[SET_CLR_CARD_DETECT], connect card\r\n"));
        if (!SD_ACMD42(TRUE, SD_STATE_TRAN)){  // connect card
 2043bb0:	01000044 	movi	r4,1
 2043bb4:	01400104 	movi	r5,4
 2043bb8:	2044dc00 	call	2044dc0 <SD_ACMD42>
 2043bbc:	1000021e 	bne	r2,zero,2043bc8 <SDLIB_Init+0x31c>
            SDCARD_DEBUG(("ACMD42 NG\r\n"));
            return FALSE;
 2043bc0:	0005883a 	mov	r2,zero
 2043bc4:	00000106 	br	2043bcc <SDLIB_Init+0x320>
        printf("!!!!!write ng\r\n");
#endif
     
    SDCARD_DEBUG(("SDLIB_Init success\r\n"));
    
    return TRUE;
 2043bc8:	00800044 	movi	r2,1
}
 2043bcc:	e037883a 	mov	sp,fp
 2043bd0:	dfc00117 	ldw	ra,4(sp)
 2043bd4:	df000017 	ldw	fp,0(sp)
 2043bd8:	dec00204 	addi	sp,sp,8
 2043bdc:	f800283a 	ret

02043be0 <SDLIB_ReadBlock512>:


bool SDLIB_ReadBlock512(alt_u32 block_number, alt_u8 *buff)
{
 2043be0:	defffa04 	addi	sp,sp,-24
 2043be4:	dfc00515 	stw	ra,20(sp)
 2043be8:	df000415 	stw	fp,16(sp)
 2043bec:	df000404 	addi	fp,sp,16
 2043bf0:	e13ffe15 	stw	r4,-8(fp)
 2043bf4:	e17fff15 	stw	r5,-4(fp)
    // buffer size muse be 512 byte
    bool bSuccess;  
    alt_u32  addr;
  
    // issue cmd17 for 'Single Block Read'. parameter: block address
    if (gSdInfo.bSDHC)
 2043bf8:	008081b4 	movhi	r2,518
 2043bfc:	10991a04 	addi	r2,r2,25704
 2043c00:	10800217 	ldw	r2,8(r2)
 2043c04:	10000326 	beq	r2,zero,2043c14 <SDLIB_ReadBlock512+0x34>
        addr = block_number; // note. for SDHC, argument for addr of CMD7 is block number
 2043c08:	e0bffe17 	ldw	r2,-8(fp)
 2043c0c:	e0bffc15 	stw	r2,-16(fp)
 2043c10:	00000306 	br	2043c20 <SDLIB_ReadBlock512+0x40>
    else 
        addr = block_number * 512;
 2043c14:	e0bffe17 	ldw	r2,-8(fp)
 2043c18:	1004927a 	slli	r2,r2,9
 2043c1c:	e0bffc15 	stw	r2,-16(fp)
    if (!SD_CMD17(addr, SD_STATE_TRAN)){  // 4-bit mode
 2043c20:	e13ffc17 	ldw	r4,-16(fp)
 2043c24:	01400104 	movi	r5,4
 2043c28:	2044f400 	call	2044f40 <SD_CMD17>
 2043c2c:	1000021e 	bne	r2,zero,2043c38 <SDLIB_ReadBlock512+0x58>
        SDCARD_DEBUG(("CMD17 NG\r\n"));
        return FALSE;
 2043c30:	0005883a 	mov	r2,zero
 2043c34:	00000506 	br	2043c4c <SDLIB_ReadBlock512+0x6c>
    }
    //

    bSuccess = SD_ReadData(buff, 512);  // read 512 bytes
 2043c38:	e13fff17 	ldw	r4,-4(fp)
 2043c3c:	01408004 	movi	r5,512
 2043c40:	20452900 	call	2045290 <SD_ReadData>
 2043c44:	e0bffd15 	stw	r2,-12(fp)
    
    //
    return bSuccess;
 2043c48:	e0bffd17 	ldw	r2,-12(fp)
}
 2043c4c:	e037883a 	mov	sp,fp
 2043c50:	dfc00117 	ldw	ra,4(sp)
 2043c54:	df000017 	ldw	fp,0(sp)
 2043c58:	dec00204 	addi	sp,sp,8
 2043c5c:	f800283a 	ret

02043c60 <SDLIB_WriteBlock512>:

bool SDLIB_WriteBlock512(alt_u32 block_number, alt_u8 *szDataWrite)
{
 2043c60:	defffa04 	addi	sp,sp,-24
 2043c64:	dfc00515 	stw	ra,20(sp)
 2043c68:	df000415 	stw	fp,16(sp)
 2043c6c:	df000404 	addi	fp,sp,16
 2043c70:	e13ffe15 	stw	r4,-8(fp)
 2043c74:	e17fff15 	stw	r5,-4(fp)
    // buffer size muse be 512 byte
    bool bSuccess;  
    alt_u32  addr;
  
    // issue cmd24 for 'Single Block write'. parameter: block address
    if (gSdInfo.bSDHC)
 2043c78:	008081b4 	movhi	r2,518
 2043c7c:	10991a04 	addi	r2,r2,25704
 2043c80:	10800217 	ldw	r2,8(r2)
 2043c84:	10000326 	beq	r2,zero,2043c94 <SDLIB_WriteBlock512+0x34>
        addr = block_number; // note. for SDHC, argument for addr of CMD7 is block number
 2043c88:	e0bffe17 	ldw	r2,-8(fp)
 2043c8c:	e0bffc15 	stw	r2,-16(fp)
 2043c90:	00000306 	br	2043ca0 <SDLIB_WriteBlock512+0x40>
    else 
        addr = block_number * 512;
 2043c94:	e0bffe17 	ldw	r2,-8(fp)
 2043c98:	1004927a 	slli	r2,r2,9
 2043c9c:	e0bffc15 	stw	r2,-16(fp)
    if (!SD_CMD24(addr, SD_STATE_TRAN)){ 
 2043ca0:	e13ffc17 	ldw	r4,-16(fp)
 2043ca4:	01400104 	movi	r5,4
 2043ca8:	20450e80 	call	20450e8 <SD_CMD24>
 2043cac:	1000021e 	bne	r2,zero,2043cb8 <SDLIB_WriteBlock512+0x58>
        SDCARD_DEBUG(("CMD24 NG\r\n"));
        return FALSE;
 2043cb0:	0005883a 	mov	r2,zero
 2043cb4:	00000506 	br	2043ccc <SDLIB_WriteBlock512+0x6c>
    }
    //

    bSuccess = SD_WriteData(szDataWrite, 512);  // Write 512 bytes
 2043cb8:	e13fff17 	ldw	r4,-4(fp)
 2043cbc:	01408004 	movi	r5,512
 2043cc0:	20452d00 	call	20452d0 <SD_WriteData>
 2043cc4:	e0bffd15 	stw	r2,-12(fp)
    
    //
    return bSuccess;
 2043cc8:	e0bffd17 	ldw	r2,-12(fp)
}
 2043ccc:	e037883a 	mov	sp,fp
 2043cd0:	dfc00117 	ldw	ra,4(sp)
 2043cd4:	df000017 	ldw	fp,0(sp)
 2043cd8:	dec00204 	addi	sp,sp,8
 2043cdc:	f800283a 	ret

02043ce0 <SD_Init>:
// internal function
alt_u32 ArrayToU32(alt_u8 szData[]);

//============================================================

void SD_Init(void){
 2043ce0:	defffe04 	addi	sp,sp,-8
 2043ce4:	dfc00115 	stw	ra,4(sp)
 2043ce8:	df000015 	stw	fp,0(sp)
 2043cec:	d839883a 	mov	fp,sp
    SDHAL_Init();
 2043cf0:	2042ef00 	call	2042ef0 <SDHAL_Init>
}
 2043cf4:	e037883a 	mov	sp,fp
 2043cf8:	dfc00117 	ldw	ra,4(sp)
 2043cfc:	df000017 	ldw	fp,0(sp)
